EXPORTS
	?SetRootUid@ChspsODT@@QAEXH@Z @ 1 NONAME ; void ChspsODT::SetRootUid(int)
	?SetProviderNameL@ChspsODT@@QAEXABVTDesC16@@@Z @ 2 NONAME ; void ChspsODT::SetProviderNameL(class TDesC16 const &)
	?NewL@ChspsODT@@SAPAV1@XZ @ 3 NONAME ; class ChspsODT * ChspsODT::NewL(void)
	?InternalizeL@ChspsODT@@QAEXAAVRReadStream@@@Z @ 4 NONAME ; void ChspsODT::InternalizeL(class RReadStream &)
	?Flags@ChspsODT@@QBEIXZ @ 5 NONAME ; unsigned int ChspsODT::Flags(void) const
	?Description@ChspsODT@@QBEABVTDesC16@@XZ @ 6 NONAME ; class TDesC16 const & ChspsODT::Description(void) const
	?SetConfigurationType@ChspsODT@@QAEXI@Z @ 7 NONAME ; void ChspsODT::SetConfigurationType(unsigned int)
	?DomDocument@ChspsODT@@QBEAAVChspsDomDocument@@XZ @ 8 NONAME ; class ChspsDomDocument & ChspsODT::DomDocument(void) const
	?Family@ChspsODT@@QBEKXZ @ 9 NONAME ; unsigned long ChspsODT::Family(void) const
	?UnMarshalHeaderLC@ChspsODT@@SAPAV1@ABVTDesC8@@@Z @ 10 NONAME ; class ChspsODT * ChspsODT::UnMarshalHeaderLC(class TDesC8 const &)
	?ExternalizeResourceListL@ChspsODT@@QBEXAAVRWriteStream@@@Z @ 11 NONAME ; void ChspsODT::ExternalizeResourceListL(class RWriteStream &) const
	?SetThemeFullNameL@ChspsODT@@QAEXABVTDesC16@@@Z @ 12 NONAME ; void ChspsODT::SetThemeFullNameL(class TDesC16 const &)
	?SetFlags@ChspsODT@@QAEXI@Z @ 13 NONAME ; void ChspsODT::SetFlags(unsigned int)
	?ResourceCount@ChspsODT@@QBEHXZ @ 14 NONAME ; int ChspsODT::ResourceCount(void) const
	?SetThemeShortNameL@ChspsODT@@QAEXABVTDesC16@@@Z @ 15 NONAME ; void ChspsODT::SetThemeShortNameL(class TDesC16 const &)
	?PreviewFile@ChspsODT@@QBEABVTDesC16@@XZ @ 16 NONAME ; class TDesC16 const & ChspsODT::PreviewFile(void) const
	?DeleteResourceL@ChspsODT@@QAEXH@Z @ 17 NONAME ; void ChspsODT::DeleteResourceL(int)
	?ThemeVersion@ChspsODT@@QBEABVTDesC16@@XZ @ 18 NONAME ; class TDesC16 const & ChspsODT::ThemeVersion(void) const
	?SetThemeUid@ChspsODT@@QAEXH@Z @ 19 NONAME ; void ChspsODT::SetThemeUid(int)
	?CopyDomDocumentL@ChspsODT@@QAEXAAVChspsDomDocument@@@Z @ 20 NONAME ; void ChspsODT::CopyDomDocumentL(class ChspsDomDocument &)
	?SetLogoFileL@ChspsODT@@QAEXABVTDesC16@@@Z @ 21 NONAME ; void ChspsODT::SetLogoFileL(class TDesC16 const &)
	?SetFamily@ChspsODT@@QAEXK@Z @ 22 NONAME ; void ChspsODT::SetFamily(unsigned long)
	?CloneL@ChspsODT@@QBEPAV1@XZ @ 23 NONAME ; class ChspsODT * ChspsODT::CloneL(void) const
	?AddResourceL@ChspsODT@@QAEXPAVChspsResource@@@Z @ 24 NONAME ; void ChspsODT::AddResourceL(class ChspsResource *)
	?SetMultiInstance@ChspsODT@@QAEXH@Z @ 25 NONAME ; void ChspsODT::SetMultiInstance(int)
	?MultiInstance@ChspsODT@@QBEHXZ @ 26 NONAME ; int ChspsODT::MultiInstance(void) const
	?ConfigurationType@ChspsODT@@QBEIXZ @ 27 NONAME ; unsigned int ChspsODT::ConfigurationType(void) const
	?NewLC@ChspsODT@@SAPAV1@ABVTDesC8@@@Z @ 28 NONAME ; class ChspsODT * ChspsODT::NewLC(class TDesC8 const &)
	?ProviderName@ChspsODT@@QBEABVTDesC16@@XZ @ 29 NONAME ; class TDesC16 const & ChspsODT::ProviderName(void) const
	?ResourceL@ChspsODT@@QBEAAVChspsResource@@H@Z @ 30 NONAME ; class ChspsResource & ChspsODT::ResourceL(int) const
	?OdtLanguage@ChspsODT@@QBEHXZ @ 31 NONAME ; int ChspsODT::OdtLanguage(void) const
	?MarshalHeaderL@ChspsODT@@QBEPAVHBufC8@@XZ @ 32 NONAME ; class HBufC8 * ChspsODT::MarshalHeaderL(void) const
	?RootUid@ChspsODT@@QBEHXZ @ 33 NONAME ; int ChspsODT::RootUid(void) const
	?ProviderUid@ChspsODT@@QBEHXZ @ 34 NONAME ; int ChspsODT::ProviderUid(void) const
	?SetDescriptionL@ChspsODT@@QAEXABVTDesC16@@@Z @ 35 NONAME ; void ChspsODT::SetDescriptionL(class TDesC16 const &)
	?ThemeShortName@ChspsODT@@QBEABVTDesC16@@XZ @ 36 NONAME ; class TDesC16 const & ChspsODT::ThemeShortName(void) const
	?ThemeFullName@ChspsODT@@QBEABVTDesC16@@XZ @ 37 NONAME ; class TDesC16 const & ChspsODT::ThemeFullName(void) const
	?SetThemeVersionL@ChspsODT@@QAEXABVTDesC16@@@Z @ 38 NONAME ; void ChspsODT::SetThemeVersionL(class TDesC16 const &)
	?InternalizeResourceListL@ChspsODT@@QAEXAAVRReadStream@@@Z @ 39 NONAME ; void ChspsODT::InternalizeResourceListL(class RReadStream &)
	?CloneL@ChspsODT@@QAEXAAV1@@Z @ 40 NONAME ; void ChspsODT::CloneL(class ChspsODT &)
	?SetPreviewFileL@ChspsODT@@QAEXABVTDesC16@@@Z @ 41 NONAME ; void ChspsODT::SetPreviewFileL(class TDesC16 const &)
	?SetOdtLanguage@ChspsODT@@QAEXH@Z @ 42 NONAME ; void ChspsODT::SetOdtLanguage(int)
	?ExternalizeHeaderL@ChspsODT@@QBEXAAVRWriteStream@@@Z @ 43 NONAME ; void ChspsODT::ExternalizeHeaderL(class RWriteStream &) const
	?InternalizeHeaderL@ChspsODT@@QAEXAAVRReadStream@@@Z @ 44 NONAME ; void ChspsODT::InternalizeHeaderL(class RReadStream &)
	?ExternalizeL@ChspsODT@@QBEXAAVRWriteStream@@@Z @ 45 NONAME ; void ChspsODT::ExternalizeL(class RWriteStream &) const
	?SetProviderUid@ChspsODT@@QAEXH@Z @ 46 NONAME ; void ChspsODT::SetProviderUid(int)
	?UnMarshalHeaderL@ChspsODT@@QAEXABVTDesC8@@@Z @ 47 NONAME ; void ChspsODT::UnMarshalHeaderL(class TDesC8 const &)
	?DeleteAllResources@ChspsODT@@QAEXXZ @ 48 NONAME ; void ChspsODT::DeleteAllResources(void)
	?LogoFile@ChspsODT@@QBEABVTDesC16@@XZ @ 49 NONAME ; class TDesC16 const & ChspsODT::LogoFile(void) const
	?ThemeUid@ChspsODT@@QBEHXZ @ 50 NONAME ; int ChspsODT::ThemeUid(void) const

