EXPORTS
	?PublishServiceIdL@CHgContextUtility@@QAEXABVTDesC16@@0ABVTTimeIntervalMicroSeconds32@@@Z @ 1 NONAME ; void CHgContextUtility::PublishServiceIdL(class TDesC16 const &, class TDesC16 const &, class TTimeIntervalMicroSeconds32 const &)
	?PublishMusicContextL@CHgContextUtility@@QAEXABVTTimeIntervalMicroSeconds32@@@Z @ 2 NONAME ; void CHgContextUtility::PublishMusicContextL(class TTimeIntervalMicroSeconds32 const &)
	?PublishContactContextL@CHgContextUtility@@QAEXABV?$RPointerArray@VMVPbkStoreContact@@@@ABVTTimeIntervalMicroSeconds32@@@Z @ 3 NONAME ; void CHgContextUtility::PublishContactContextL(class RPointerArray<class MVPbkStoreContact> const &, class TTimeIntervalMicroSeconds32 const &)
	?SplitCombinedStringL@CHgContextUtility@@SAXABVTDesC16@@AAVCDesC16Array@@@Z @ 4 NONAME ; void CHgContextUtility::SplitCombinedStringL(class TDesC16 const &, class CDesC16Array &)
	?PublishContactContextL@CHgContextUtility@@QAEXABVTDesC16@@ABVTTimeIntervalMicroSeconds32@@@Z @ 5 NONAME ; void CHgContextUtility::PublishContactContextL(class TDesC16 const &, class TTimeIntervalMicroSeconds32 const &)
	??1CHgContextUtility@@UAE@XZ @ 6 NONAME ; CHgContextUtility::~CHgContextUtility(void)
	?NewLC@CHgContextUtility@@SAPAV1@XZ @ 7 NONAME ; class CHgContextUtility * CHgContextUtility::NewLC(void)
	?RePublishWhenFgL@CHgContextUtility@@QAEXH@Z @ 8 NONAME ; void CHgContextUtility::RePublishWhenFgL(int)
	?PublishPhotoContextL@CHgContextUtility@@QAEXABVTDesC16@@ABVTTimeIntervalMicroSeconds32@@@Z @ 9 NONAME ; void CHgContextUtility::PublishPhotoContextL(class TDesC16 const &, class TTimeIntervalMicroSeconds32 const &)
	?BuildCombinedStringL@CHgContextUtility@@SAPAVHBufC16@@ABVMDesC16Array@@@Z @ 10 NONAME ; class HBufC16 * CHgContextUtility::BuildCombinedStringL(class MDesC16Array const &)
	?PublishContextDelayedL@CHgContextUtilityBase@@QAEXABVTDesC16@@ABVMDesC16Array@@ABVTTimeIntervalMicroSeconds32@@@Z @ 11 NONAME ; void CHgContextUtilityBase::PublishContextDelayedL(class TDesC16 const &, class MDesC16Array const &, class TTimeIntervalMicroSeconds32 const &)
	?PublishContactContextL@CHgContextUtility@@QAEXABVMVPbkContactLink@@ABVTTimeIntervalMicroSeconds32@@@Z @ 12 NONAME ; void CHgContextUtility::PublishContactContextL(class MVPbkContactLink const &, class TTimeIntervalMicroSeconds32 const &)
	?PublishUrlContextL@CHgContextUtility@@QAEXABVTDesC16@@ABVTTimeIntervalMicroSeconds32@@@Z @ 13 NONAME ; void CHgContextUtility::PublishUrlContextL(class TDesC16 const &, class TTimeIntervalMicroSeconds32 const &)
	?PublishTvContextL@CHgContextUtility@@QAEXABVTDesC16@@000@Z @ 14 NONAME ; void CHgContextUtility::PublishTvContextL(class TDesC16 const &, class TDesC16 const &, class TDesC16 const &, class TDesC16 const &)
	?PublishContextL@CHgContextUtilityBase@@QAEXABVTDesC16@@ABVMDesC16Array@@@Z @ 15 NONAME ; void CHgContextUtilityBase::PublishContextL(class TDesC16 const &, class MDesC16Array const &)
	?AllowPublishFromBackground@CHgContextUtility@@QAEXH@Z @ 16 NONAME ; void CHgContextUtility::AllowPublishFromBackground(int)
	?PublishContactContextL@CHgContextUtility@@QAEXABVMVPbkStoreContact@@ABVTTimeIntervalMicroSeconds32@@@Z @ 17 NONAME ; void CHgContextUtility::PublishContactContextL(class MVPbkStoreContact const &, class TTimeIntervalMicroSeconds32 const &)
	?AddMusicContextInfoL@CHgContextUtility@@QAEXABVTDesC16@@0@Z @ 18 NONAME ; void CHgContextUtility::AddMusicContextInfoL(class TDesC16 const &, class TDesC16 const &)
	?GetContextL@CHgContextUtilityBase@@QAEPAVHBufC16@@ABVTDesC16@@@Z @ 19 NONAME ; class HBufC16 * CHgContextUtilityBase::GetContextL(class TDesC16 const &)
	?NewL@CHgContextUtility@@SAPAV1@XZ @ 20 NONAME ; class CHgContextUtility * CHgContextUtility::NewL(void)
	?PublishContextDelayedL@CHgContextUtilityBase@@QAEXABVTDesC16@@0ABVTTimeIntervalMicroSeconds32@@@Z @ 21 NONAME ; void CHgContextUtilityBase::PublishContextDelayedL(class TDesC16 const &, class TDesC16 const &, class TTimeIntervalMicroSeconds32 const &)
	?PublishTextContextL@CHgContextUtility@@QAEXABVTDesC16@@ABVTTimeIntervalMicroSeconds32@@@Z @ 22 NONAME ; void CHgContextUtility::PublishTextContextL(class TDesC16 const &, class TTimeIntervalMicroSeconds32 const &)
	?PublishContextL@CHgContextUtilityBase@@QAEXABVTDesC16@@0@Z @ 23 NONAME ; void CHgContextUtilityBase::PublishContextL(class TDesC16 const &, class TDesC16 const &)
	?GetContextL@CHgContextUtilityBase@@QAEPAVHBufC16@@ABVTDesC16@@0@Z @ 24 NONAME ; class HBufC16 * CHgContextUtilityBase::GetContextL(class TDesC16 const &, class TDesC16 const &)
	?PublishRadioContextL@CHgContextUtility@@QAEXABVTDesC16@@000@Z @ 25 NONAME ; void CHgContextUtility::PublishRadioContextL(class TDesC16 const &, class TDesC16 const &, class TDesC16 const &, class TDesC16 const &)
	?PublishPhotoContextL@CHgContextUtility@@QAEXKAAVCMdESession@@ABVTTimeIntervalMicroSeconds32@@@Z @ 26 NONAME ; void CHgContextUtility::PublishPhotoContextL(unsigned long, class CMdESession &, class TTimeIntervalMicroSeconds32 const &)
	?PublishContactContextL@CHgContextUtility@@QAEXABVCVPbkContactLinkArray@@ABVTTimeIntervalMicroSeconds32@@@Z @ 27 NONAME ; void CHgContextUtility::PublishContactContextL(class CVPbkContactLinkArray const &, class TTimeIntervalMicroSeconds32 const &)
	?PublishTimeContextL@CHgContextUtility@@QAEXABVTTime@@ABVTTimeIntervalMicroSeconds32@@@Z @ 28 NONAME ; void CHgContextUtility::PublishTimeContextL(class TTime const &, class TTimeIntervalMicroSeconds32 const &)
	?PublishContactContextL@CHgContextUtility@@QAEXABVMDesC16Array@@ABVTTimeIntervalMicroSeconds32@@@Z @ 29 NONAME ; void CHgContextUtility::PublishContactContextL(class MDesC16Array const &, class TTimeIntervalMicroSeconds32 const &)

