EXPORTS
	?MarshallL@ChspsDomDocument@@QAEPAVHBufC8@@XZ @ 1 NONAME ; class HBufC8 * ChspsDomDocument::MarshallL(void)
	?NewL@ChspsDomDepthIterator@@SAPAV1@AAVChspsDomNode@@@Z @ 2 NONAME ; class ChspsDomDepthIterator * ChspsDomDepthIterator::NewL(class ChspsDomNode &)
	?RemoveItem@ChspsDomList@@QAEXPAVMhspsDomListItem@@@Z @ 3 NONAME ; void ChspsDomList::RemoveItem(class MhspsDomListItem *)
	?LayoutNode@ChspsDomNode@@QAEPAVChspsNode@@XZ @ 4 NONAME ; class ChspsNode * ChspsDomNode::LayoutNode(void)
	?First@ChspsDomDepthIterator@@UAEPAVChspsDomNode@@XZ @ 5 NONAME ; class ChspsDomNode * ChspsDomDepthIterator::First(void)
	?Length@ChspsDomList@@QBEHXZ @ 6 NONAME ; int ChspsDomList::Length(void) const
	?ExternalizeL@ChspsDomDocument@@QBEXAAVRWriteStream@@@Z @ 7 NONAME ; void ChspsDomDocument::ExternalizeL(class RWriteStream &) const
	?SetLayoutNode@ChspsDomNode@@QAEXPAVChspsNode@@@Z @ 8 NONAME ; void ChspsDomNode::SetLayoutNode(class ChspsNode *)
	?ChildNodes@ChspsDomNode@@QAEAAVChspsDomList@@XZ @ 9 NONAME ; class ChspsDomList & ChspsDomNode::ChildNodes(void)
	?FindByName@ChspsDomList@@QAEPAVMhspsDomListItem@@ABVTDesC8@@@Z @ 10 NONAME ; class MhspsDomListItem * ChspsDomList::FindByName(class TDesC8 const &)
	?Last@ChspsDomList@@QAEPAVMhspsDomListItem@@XZ @ 11 NONAME ; class MhspsDomListItem * ChspsDomList::Last(void)
	?RemoveItem@ChspsDomList@@QAEXH@Z @ 12 NONAME ; void ChspsDomList::RemoveItem(int)
	?InternalizeL@ChspsDomDocument@@QAEXAAVRReadStream@@@Z @ 13 NONAME ; void ChspsDomDocument::InternalizeL(class RReadStream &)
	?PCData@ChspsDomNode@@QAEABVTDesC8@@XZ @ 14 NONAME ; class TDesC8 const & ChspsDomNode::PCData(void)
	?CloneWithoutKidsL@ChspsDomNode@@QAEPAV1@AAVChspsDomStringPool@@@Z @ 15 NONAME ; class ChspsDomNode * ChspsDomNode::CloneWithoutKidsL(class ChspsDomStringPool &)
	?AddStringL@ChspsDomStringPool@@QAEHABVTDesC8@@@Z @ 16 NONAME ; int ChspsDomStringPool::AddStringL(class TDesC8 const &)
	?DeleteItem@ChspsDomList@@QAEXPAVMhspsDomListItem@@@Z @ 17 NONAME ; void ChspsDomList::DeleteItem(class MhspsDomListItem *)
	?Size@ChspsDomDocument@@QBEHXZ @ 18 NONAME ; int ChspsDomDocument::Size(void) const
	?StringPool@ChspsDomList@@QBEAAVChspsDomStringPool@@XZ @ 19 NONAME ; class ChspsDomStringPool & ChspsDomList::StringPool(void) const
	?SetValueL@ChspsDomAttribute@@QAEXABVTDesC8@@@Z @ 20 NONAME ; void ChspsDomAttribute::SetValueL(class TDesC8 const &)
	?NewL@ChspsDomAttribute@@SAPAV1@ABVTDesC8@@AAVChspsDomStringPool@@@Z @ 21 NONAME ; class ChspsDomAttribute * ChspsDomAttribute::NewL(class TDesC8 const &, class ChspsDomStringPool &)
	?ItemIndex@ChspsDomNode@@QBEHABVMhspsDomListItem@@@Z @ 22 NONAME ; int ChspsDomNode::ItemIndex(class MhspsDomListItem const &) const
	?AddChildL@ChspsDomNode@@QAEXPAV1@H@Z @ 23 NONAME ; void ChspsDomNode::AddChildL(class ChspsDomNode *, int)
	?NodeId@ChspsDomNode@@QBEHXZ @ 24 NONAME ; int ChspsDomNode::NodeId(void) const
	?SetNodeId@ChspsDomNode@@QAEXH@Z @ 25 NONAME ; void ChspsDomNode::SetNodeId(int)
	?Item@ChspsDomList@@QBEPAVMhspsDomListItem@@H@Z @ 26 NONAME ; class MhspsDomListItem * ChspsDomList::Item(int) const
	?ItemIndex@ChspsDomList@@QBEHABVMhspsDomListItem@@@Z @ 27 NONAME ; int ChspsDomList::ItemIndex(class MhspsDomListItem const &) const
	?NextSibling@ChspsDomDepthIterator@@UAEPAVChspsDomNode@@AAV2@@Z @ 28 NONAME ; class ChspsDomNode * ChspsDomDepthIterator::NextSibling(class ChspsDomNode &)
	?ValueStringPoolIndex@ChspsDomAttribute@@QBEFXZ @ 29 NONAME ; short ChspsDomAttribute::ValueStringPoolIndex(void) const
	?CreateElementNSL@ChspsDomDocument@@QAEPAVChspsDomNode@@ABVTDesC8@@0@Z @ 30 NONAME ; class ChspsDomNode * ChspsDomDocument::CreateElementNSL(class TDesC8 const &, class TDesC8 const &)
	?DeleteChild@ChspsDomNode@@QAEXPAV1@@Z @ 31 NONAME ; void ChspsDomNode::DeleteChild(class ChspsDomNode *)
	?SetRootNode@ChspsDomDocument@@QAEXPAVChspsDomNode@@@Z @ 32 NONAME ; void ChspsDomDocument::SetRootNode(class ChspsDomNode *)
	?ContentType@ChspsDomNode@@QAEABW4TContentType@@XZ @ 33 NONAME ; enum TContentType const & ChspsDomNode::ContentType(void)
	?Namespace@ChspsDomNode@@QAEABVTDesC8@@XZ @ 34 NONAME ; class TDesC8 const & ChspsDomNode::Namespace(void)
	?CloneL@ChspsDomAttribute@@QAEPAV1@XZ @ 35 NONAME ; class ChspsDomAttribute * ChspsDomAttribute::CloneL(void)
	?AddChildL@ChspsDomNode@@QAEXPAV1@@Z @ 36 NONAME ; void ChspsDomNode::AddChildL(class ChspsDomNode *)
	?NewL@ChspsDomDocument@@SAPAV1@XZ @ 37 NONAME ; class ChspsDomDocument * ChspsDomDocument::NewL(void)
	?IsRefNode@ChspsDomNode@@QBEHXZ @ 38 NONAME ; int ChspsDomNode::IsRefNode(void) const
	?SetPCDataL@ChspsDomNode@@QAEXABVTDesC8@@@Z @ 39 NONAME ; void ChspsDomNode::SetPCDataL(class TDesC8 const &)
	?Value@ChspsDomAttribute@@QAEABVTDesC8@@XZ @ 40 NONAME ; class TDesC8 const & ChspsDomAttribute::Value(void)
	??1ChspsDomDepthIterator@@UAE@XZ @ 41 NONAME ; ChspsDomDepthIterator::~ChspsDomDepthIterator(void)
	?CreateRefNodeL@ChspsDomNode@@QAEPAV1@XZ @ 42 NONAME ; class ChspsDomNode * ChspsDomNode::CreateRefNodeL(void)
	?Reset@ChspsDomList@@QAEXXZ @ 43 NONAME ; void ChspsDomList::Reset(void)
	?StringPool@ChspsDomNode@@QBEAAVChspsDomStringPool@@XZ @ 44 NONAME ; class ChspsDomStringPool & ChspsDomNode::StringPool(void) const
	?AttributeValue@ChspsDomNode@@QBEABVTDesC8@@ABV2@@Z @ 45 NONAME ; class TDesC8 const & ChspsDomNode::AttributeValue(class TDesC8 const &) const
	?SetContentType@ChspsDomNode@@QAEXABW4TContentType@@@Z @ 46 NONAME ; void ChspsDomNode::SetContentType(enum TContentType const &)
	?NextL@ChspsDomDepthIterator@@UAEPAVChspsDomNode@@XZ @ 47 NONAME ; class ChspsDomNode * ChspsDomDepthIterator::NextL(void)
	?CloneL@ChspsDomDocument@@QAEPAV1@XZ @ 48 NONAME ; class ChspsDomDocument * ChspsDomDocument::CloneL(void)
	?AttributeList@ChspsDomNode@@QBEAAVChspsDomList@@XZ @ 49 NONAME ; class ChspsDomList & ChspsDomNode::AttributeList(void) const
	?LastNode@ChspsDomDocument@@QBEPAVChspsDomNode@@XZ @ 50 NONAME ; class ChspsDomNode * ChspsDomDocument::LastNode(void) const
	??1ChspsDomAttribute@@UAE@XZ @ 51 NONAME ; ChspsDomAttribute::~ChspsDomAttribute(void)
	?NewL@ChspsDomDocument@@SAPAV1@AAVRReadStream@@@Z @ 52 NONAME ; class ChspsDomDocument * ChspsDomDocument::NewL(class RReadStream &)
	?SetParent@ChspsDomNode@@QAEXPAV1@@Z @ 53 NONAME ; void ChspsDomNode::SetParent(class ChspsDomNode *)
	?RootNode@ChspsDomDocument@@QBEPAVChspsDomNode@@XZ @ 54 NONAME ; class ChspsDomNode * ChspsDomDocument::RootNode(void) const
	?Name@ChspsDomNode@@UAEABVTDesC8@@XZ @ 55 NONAME ; class TDesC8 const & ChspsDomNode::Name(void)
	?First@ChspsDomList@@QAEPAVMhspsDomListItem@@XZ @ 56 NONAME ; class MhspsDomListItem * ChspsDomList::First(void)
	?NameStringPoolIndex@ChspsDomAttribute@@QBEFXZ @ 57 NONAME ; short ChspsDomAttribute::NameStringPoolIndex(void) const
	?Name@ChspsDomAttribute@@UAEABVTDesC8@@XZ @ 58 NONAME ; class TDesC8 const & ChspsDomAttribute::Name(void)
	?NewL@ChspsDomDocument@@SAPAV1@PBVHBufC8@@@Z @ 59 NONAME ; class ChspsDomDocument * ChspsDomDocument::NewL(class HBufC8 const *)
	?ReplaceChildL@ChspsDomNode@@QAEXPAV1@0@Z @ 60 NONAME ; void ChspsDomNode::ReplaceChildL(class ChspsDomNode *, class ChspsDomNode *)
	?AddItemL@ChspsDomList@@QAEXPAVMhspsDomListItem@@@Z @ 61 NONAME ; void ChspsDomList::AddItemL(class MhspsDomListItem *)
	?AppendPCDataL@ChspsDomNode@@QAEXABVTDesC8@@@Z @ 62 NONAME ; void ChspsDomNode::AppendPCDataL(class TDesC8 const &)
	?SetRefNode@ChspsDomNode@@QAEXH@Z @ 63 NONAME ; void ChspsDomNode::SetRefNode(int)
	?AddItemL@ChspsDomList@@QAEXPAVMhspsDomListItem@@H@Z @ 64 NONAME ; void ChspsDomList::AddItemL(class MhspsDomListItem *, int)
	?Parent@ChspsDomNode@@QBEPAV1@XZ @ 65 NONAME ; class ChspsDomNode * ChspsDomNode::Parent(void) const
	?StringPool@ChspsDomDocument@@QBEAAVChspsDomStringPool@@XZ @ 66 NONAME ; class ChspsDomStringPool & ChspsDomDocument::StringPool(void) const
	??1ChspsDomDocument@@UAE@XZ @ 67 NONAME ; ChspsDomDocument::~ChspsDomDocument(void)
	?CloneL@ChspsDomNode@@QAEPAV1@AAVChspsDomStringPool@@@Z @ 68 NONAME ; class ChspsDomNode * ChspsDomNode::CloneL(class ChspsDomStringPool &)
	?DeleteItem@ChspsDomList@@QAEXH@Z @ 69 NONAME ; void ChspsDomList::DeleteItem(int)
	?DescendantCount@ChspsDomNode@@QBEHXZ @ 70 NONAME ; int ChspsDomNode::DescendantCount(void) const
	?DomNodeCount@ChspsDomDocument@@QBEHXZ @ 71 NONAME ; int ChspsDomDocument::DomNodeCount(void) const

