EXPORTS
	_ZN11ChspsResult12InternalizeLER14RDesReadStream @ 1 NONAME
	_ZN11ChspsResult4NewLEv @ 2 NONAME
	_ZN11ChspsResult9ResetDataEv @ 3 NONAME
	_ZNK11ChspsResult12ExternalizeLER15RDesWriteStream @ 4 NONAME
	_ZNK11ChspsResult13GetDataLengthEv @ 5 NONAME
	_ZTI11ChspsResult @ 6 NONAME ; #<TI>#
	_ZTV11ChspsResult @ 7 NONAME ; #<VT>#
	_ZN17ChspsPluginIdList12InternalizeLER14RDesReadStream @ 8 NONAME
	_ZN17ChspsPluginIdListC1Ei @ 9 NONAME
	_ZN17ChspsPluginIdListC2Ei @ 10 NONAME
	_ZN17ChspsPluginIdListD0Ev @ 11 NONAME
	_ZN17ChspsPluginIdListD1Ev @ 12 NONAME
	_ZN17ChspsPluginIdListD2Ev @ 13 NONAME
	_ZNK17ChspsPluginIdList12ExternalizeLER15RDesWriteStream @ 14 NONAME
	_ZTI17ChspsPluginIdList @ 15 NONAME ; #<TI>#
	_ZTV17ChspsPluginIdList @ 16 NONAME ; #<VT>#
	_ZN17ChspsPluginIdList13GetDataLengthEv @ 17 NONAME
	_ZN30ChspsRequestNotificationParams12InternalizeLER14RDesReadStream @ 18 NONAME
	_ZN30ChspsRequestNotificationParams4NewLEv @ 19 NONAME
	_ZN30ChspsRequestNotificationParams8SetNameLERK7TDesC16 @ 20 NONAME
	_ZN30ChspsRequestNotificationParams9ResetDataEv @ 21 NONAME
	_ZNK30ChspsRequestNotificationParams12ExternalizeLER15RDesWriteStream @ 22 NONAME
	_ZNK30ChspsRequestNotificationParams13GetDataLengthEv @ 23 NONAME
	_ZNK30ChspsRequestNotificationParams4NameEv @ 24 NONAME
	_ZTI30ChspsRequestNotificationParams @ 25 NONAME ; #<TI>#
	_ZTV30ChspsRequestNotificationParams @ 26 NONAME ; #<VT>#

