EXPORTS
	_Z16CreateTestSuiteLv @ 1 NONAME
	_Z24ImplementationGroupProxyRi @ 2 NONAME
	_ZN14CProfileEngine4NewLEv @ 3 NONAME
	_ZN14CProfileEngine5NewLCEv @ 4 NONAME
	_ZTI10CNWSession @ 5 NONAME ; #<TI>#
	_ZTI12CRuntimeTest @ 6 NONAME ; #<TI>#
	_ZTI14CProfileEngine @ 7 NONAME ; #<TI>#
	_ZTI15CAiCUGPublisher @ 8 NONAME ; #<TI>#
	_ZTI15CAiMCNPublisher @ 9 NONAME ; #<TI>#
	_ZTI15CAiNwsPublisher @ 10 NONAME ; #<TI>#
	_ZTI15CAiVHZPublisher @ 11 NONAME ; #<TI>#
	_ZTI16CAiDatePublisher @ 12 NONAME ; #<TI>#
	_ZTI16CContentObserver @ 13 NONAME ; #<TI>#
	_ZTI17CAiBTSAPPublisher @ 14 NONAME ; #<TI>#
	_ZTI18CAiCUGMCNPublisher @ 15 NONAME ; #<TI>#
	_ZTI18CAiSimRegPublisher @ 16 NONAME ; #<TI>#
	_ZTI19CAiProfilePublisher @ 17 NONAME ; #<TI>#
	_ZTI21CAiDeviceStatusPlugin @ 18 NONAME ; #<TI>#
	_ZTI21CAiPublishPrioritizer @ 19 NONAME ; #<TI>#
	_ZTI22CAiNetworkInfoListener @ 20 NONAME ; #<TI>#
	_ZTI23CAiMultiContentObserver @ 21 NONAME ; #<TI>#
	_ZTI24CAiOperatorLogoPublisher @ 22 NONAME ; #<TI>#
	_ZTI24CAiOperatorNamePublisher @ 23 NONAME ; #<TI>#
	_ZTI27CAiContentObserverOptimizer @ 24 NONAME ; #<TI>#
	_ZTI27CAiDeviceStatusPluginEngine @ 25 NONAME ; #<TI>#
	_ZTI8CProfile @ 26 NONAME ; #<TI>#
	_ZTV10CNWSession @ 27 NONAME ; #<VT>#
	_ZTV12CRuntimeTest @ 28 NONAME ; #<VT>#
	_ZTV14CProfileEngine @ 29 NONAME ; #<VT>#
	_ZTV15CAiCUGPublisher @ 30 NONAME ; #<VT>#
	_ZTV15CAiMCNPublisher @ 31 NONAME ; #<VT>#
	_ZTV15CAiNwsPublisher @ 32 NONAME ; #<VT>#
	_ZTV15CAiVHZPublisher @ 33 NONAME ; #<VT>#
	_ZTV16CAiDatePublisher @ 34 NONAME ; #<VT>#
	_ZTV16CContentObserver @ 35 NONAME ; #<VT>#
	_ZTV17CAiBTSAPPublisher @ 36 NONAME ; #<VT>#
	_ZTV18CAiCUGMCNPublisher @ 37 NONAME ; #<VT>#
	_ZTV18CAiSimRegPublisher @ 38 NONAME ; #<VT>#
	_ZTV19CAiProfilePublisher @ 39 NONAME ; #<VT>#
	_ZTV21CAiDeviceStatusPlugin @ 40 NONAME ; #<VT>#
	_ZTV21CAiPublishPrioritizer @ 41 NONAME ; #<VT>#
	_ZTV22CAiNetworkInfoListener @ 42 NONAME ; #<VT>#
	_ZTV23CAiMultiContentObserver @ 43 NONAME ; #<VT>#
	_ZTV24CAiOperatorLogoPublisher @ 44 NONAME ; #<VT>#
	_ZTV24CAiOperatorNamePublisher @ 45 NONAME ; #<VT>#
	_ZTV27CAiContentObserverOptimizer @ 46 NONAME ; #<VT>#
	_ZTV27CAiDeviceStatusPluginEngine @ 47 NONAME ; #<VT>#
	_ZTV8CProfile @ 48 NONAME ; #<VT>#

