EXPORTS
	_ZN25ChspsDefinitionRepository10SetLocaleLER8ChspsODTR13ChspsResource @ 1 NONAME
	_ZN25ChspsDefinitionRepository11GetODTPathLERK8ChspsODTR6TDes16 @ 2 NONAME
	_ZN25ChspsDefinitionRepository12MakeODTPathLER8ChspsODTR13ChspsResource @ 3 NONAME
	_ZN25ChspsDefinitionRepository12RemoveThemeLERK8ChspsODT @ 4 NONAME
	_ZN25ChspsDefinitionRepository13ClearBackupsLEv @ 5 NONAME
	_ZN25ChspsDefinitionRepository13GetOdtHeaderLER6TDes169TLanguageR8ChspsODT @ 6 NONAME
	_ZN25ChspsDefinitionRepository16GetResourceListLERK8ChspsODTR12CArrayPtrSegI13ChspsResourceE @ 7 NONAME
	_ZN25ChspsDefinitionRepository16GetResourcePathLERK8ChspsODT17ThspsResourceTypeR6TDes16 @ 8 NONAME
	_ZN25ChspsDefinitionRepository16SetResourceListLER8ChspsODTRK12CArrayPtrSegI13ChspsResourceE @ 9 NONAME
	_ZN25ChspsDefinitionRepository17GetThemePathListLER15CDesC16ArraySegRK8ChspsODT @ 10 NONAME
	_ZN25ChspsDefinitionRepository17MakeResourcePathLERK8ChspsODTR13ChspsResource @ 11 NONAME
	_ZN25ChspsDefinitionRepository17RegisterObserverLERK33MhspsDefinitionRepositoryObserver @ 12 NONAME
	_ZN25ChspsDefinitionRepository18UnregisterObserverERK33MhspsDefinitionRepositoryObserver @ 13 NONAME
	_ZN25ChspsDefinitionRepository20BackupConfigurationLERK8ChspsODT @ 14 NONAME
	_ZN25ChspsDefinitionRepository20RegisterNotificationE19ThspsRepositoryInfo @ 15 NONAME
	_ZN25ChspsDefinitionRepository21GetThemeListAsStreamLER12CArrayPtrSegI6HBufC8ERK8ChspsODT @ 16 NONAME
	_ZN25ChspsDefinitionRepository26RestoreBackupConfigurationERK8ChspsODT @ 17 NONAME
	_ZN25ChspsDefinitionRepository4LockEv @ 18 NONAME
	_ZN25ChspsDefinitionRepository4NewLEv @ 19 NONAME
	_ZN25ChspsDefinitionRepository6UnlockEv @ 20 NONAME
	_ZN25ChspsDefinitionRepository7GetOdtLER8ChspsODT @ 21 NONAME
	_ZN25ChspsDefinitionRepository7GetOdtLERK6TDes16R8ChspsODT @ 22 NONAME
	_ZN25ChspsDefinitionRepository7SetOdtLERK8ChspsODT @ 23 NONAME
	_ZN25ChspsDefinitionRepository9SetLogBusEPv @ 24 NONAME
	_ZNK25ChspsDefinitionRepository6LockedEv @ 25 NONAME
	_ZTI25ChspsDefinitionRepository @ 26 NONAME ; #<TI>#
	_ZTV25ChspsDefinitionRepository @ 27 NONAME ; #<VT>#

