EXPORTS
	?SetLocaleL@ChspsDefinitionRepository@@QAEHAAVChspsODT@@AAVChspsResource@@@Z @ 1 NONAME ; int ChspsDefinitionRepository::SetLocaleL(class ChspsODT &, class ChspsResource &)
	?RemoveThemeL@ChspsDefinitionRepository@@QAEXABVChspsODT@@@Z @ 2 NONAME ; void ChspsDefinitionRepository::RemoveThemeL(class ChspsODT const &)
	?Locked@ChspsDefinitionRepository@@QBEHXZ @ 3 NONAME ; int ChspsDefinitionRepository::Locked(void) const
	?GetResourceListL@ChspsDefinitionRepository@@QAEHABVChspsODT@@AAV?$CArrayPtrSeg@VChspsResource@@@@@Z @ 4 NONAME ; int ChspsDefinitionRepository::GetResourceListL(class ChspsODT const &, class CArrayPtrSeg<class ChspsResource> &)
	?SetLogBus@ChspsDefinitionRepository@@QAEXPAX@Z @ 5 NONAME ; void ChspsDefinitionRepository::SetLogBus(void *)
	?Unlock@ChspsDefinitionRepository@@QAEXXZ @ 6 NONAME ; void ChspsDefinitionRepository::Unlock(void)
	?UnregisterObserver@ChspsDefinitionRepository@@QAEXABVMhspsDefinitionRepositoryObserver@@@Z @ 7 NONAME ; void ChspsDefinitionRepository::UnregisterObserver(class MhspsDefinitionRepositoryObserver const &)
	?RestoreBackupConfiguration@ChspsDefinitionRepository@@QAEHABVChspsODT@@@Z @ 8 NONAME ; int ChspsDefinitionRepository::RestoreBackupConfiguration(class ChspsODT const &)
	?SetOdtL@ChspsDefinitionRepository@@QAEHABVChspsODT@@@Z @ 9 NONAME ; int ChspsDefinitionRepository::SetOdtL(class ChspsODT const &)
	?GetResourcePathL@ChspsDefinitionRepository@@QAEXABVChspsODT@@W4ThspsResourceType@@AAVTDes16@@@Z @ 10 NONAME ; void ChspsDefinitionRepository::GetResourcePathL(class ChspsODT const &, enum ThspsResourceType, class TDes16 &)
	?GetODTPathL@ChspsDefinitionRepository@@QAEXABVChspsODT@@AAVTDes16@@@Z @ 11 NONAME ; void ChspsDefinitionRepository::GetODTPathL(class ChspsODT const &, class TDes16 &)
	?MakeODTPathL@ChspsDefinitionRepository@@QAEXAAVChspsODT@@AAVChspsResource@@@Z @ 12 NONAME ; void ChspsDefinitionRepository::MakeODTPathL(class ChspsODT &, class ChspsResource &)
	?RegisterNotification@ChspsDefinitionRepository@@QAEXVThspsRepositoryInfo@@@Z @ 13 NONAME ; void ChspsDefinitionRepository::RegisterNotification(class ThspsRepositoryInfo)
	?GetThemeListAsStreamL@ChspsDefinitionRepository@@QAEXAAV?$CArrayPtrSeg@VHBufC8@@@@ABVChspsODT@@@Z @ 14 NONAME ; void ChspsDefinitionRepository::GetThemeListAsStreamL(class CArrayPtrSeg<class HBufC8> &, class ChspsODT const &)
	?ClearBackupsL@ChspsDefinitionRepository@@QAEXXZ @ 15 NONAME ; void ChspsDefinitionRepository::ClearBackupsL(void)
	?MakeResourcePathL@ChspsDefinitionRepository@@QAEXABVChspsODT@@AAVChspsResource@@@Z @ 16 NONAME ; void ChspsDefinitionRepository::MakeResourcePathL(class ChspsODT const &, class ChspsResource &)
	?GetOdtL@ChspsDefinitionRepository@@QAEHAAVChspsODT@@@Z @ 17 NONAME ; int ChspsDefinitionRepository::GetOdtL(class ChspsODT &)
	?Lock@ChspsDefinitionRepository@@QAEXXZ @ 18 NONAME ; void ChspsDefinitionRepository::Lock(void)
	?NewL@ChspsDefinitionRepository@@SAPAV1@XZ @ 19 NONAME ; class ChspsDefinitionRepository * ChspsDefinitionRepository::NewL(void)
	?GetThemePathListL@ChspsDefinitionRepository@@QAEXAAVCDesC16ArraySeg@@ABVChspsODT@@@Z @ 20 NONAME ; void ChspsDefinitionRepository::GetThemePathListL(class CDesC16ArraySeg &, class ChspsODT const &)
	?GetOdtL@ChspsDefinitionRepository@@QAEXABVTDes16@@AAVChspsODT@@@Z @ 21 NONAME ; void ChspsDefinitionRepository::GetOdtL(class TDes16 const &, class ChspsODT &)
	?SetResourceListL@ChspsDefinitionRepository@@QAEHAAVChspsODT@@ABV?$CArrayPtrSeg@VChspsResource@@@@@Z @ 22 NONAME ; int ChspsDefinitionRepository::SetResourceListL(class ChspsODT &, class CArrayPtrSeg<class ChspsResource> const &)
	?RegisterObserverL@ChspsDefinitionRepository@@QAEXABVMhspsDefinitionRepositoryObserver@@@Z @ 23 NONAME ; void ChspsDefinitionRepository::RegisterObserverL(class MhspsDefinitionRepositoryObserver const &)
	?GetOdtHeaderL@ChspsDefinitionRepository@@QAEHAAVTDes16@@W4TLanguage@@AAVChspsODT@@@Z @ 24 NONAME ; int ChspsDefinitionRepository::GetOdtHeaderL(class TDes16 &, enum TLanguage, class ChspsODT &)
	?BackupConfigurationL@ChspsDefinitionRepository@@QAEXABVChspsODT@@@Z @ 25 NONAME ; void ChspsDefinitionRepository::BackupConfigurationL(class ChspsODT const &)

