EXPORTS
	_ZN14CHsContentInfo12ExternalizeLER12RWriteStream @ 1 NONAME
	_ZN14CHsContentInfo12InternalizeLER11RReadStream @ 2 NONAME
	_ZN14CHsContentInfo12SetIconPathLERK7TDesC16 @ 3 NONAME
	_ZN14CHsContentInfo12SetPluginIdLERK6TDesC8 @ 4 NONAME
	_ZN14CHsContentInfo13SetCanBeAddedEi @ 5 NONAME
	_ZN14CHsContentInfo13SetMaxWidgetsEi @ 6 NONAME
	_ZN14CHsContentInfo15SetCanBeRemovedEi @ 7 NONAME
	_ZN14CHsContentInfo15SetDescriptionLERK7TDesC16 @ 8 NONAME
	_ZN14CHsContentInfo15SetPublisherIdLERK7TDesC16 @ 9 NONAME
	_ZN14CHsContentInfo16SetPublisherUidLERK6TDesC8 @ 10 NONAME
	_ZN14CHsContentInfo19SetInstallationTimeER5TTime @ 11 NONAME
	_ZN14CHsContentInfo4NewLER11RReadStream @ 12 NONAME
	_ZN14CHsContentInfo4NewLEv @ 13 NONAME
	_ZN14CHsContentInfo4SizeEv @ 14 NONAME
	_ZN14CHsContentInfo5NewLCEv @ 15 NONAME
	_ZN14CHsContentInfo6CloneLEv @ 16 NONAME
	_ZN14CHsContentInfo7SetUidLERK6TDesC8 @ 17 NONAME
	_ZN14CHsContentInfo8MarshalLEv @ 18 NONAME
	_ZN14CHsContentInfo8SetNameLERK6TDesC8 @ 19 NONAME
	_ZN14CHsContentInfo8SetNameLERK7TDesC16 @ 20 NONAME
	_ZN14CHsContentInfo8SetTypeLERK6TDesC8 @ 21 NONAME
	_ZN19CHsContentInfoArray12ExternalizeLER12RWriteStream @ 22 NONAME
	_ZN19CHsContentInfoArray12InternalizeLER11RReadStream @ 23 NONAME
	_ZN19CHsContentInfoArray4NewLER11RReadStream @ 24 NONAME
	_ZN19CHsContentInfoArray4NewLEv @ 25 NONAME
	_ZN19CHsContentInfoArray4SizeEv @ 26 NONAME
	_ZN19CHsContentInfoArray5ArrayEv @ 27 NONAME
	_ZN19CHsContentInfoArray8MarshalLEv @ 28 NONAME
	_ZNK14CHsContentInfo10CanBeAddedEv @ 29 NONAME
	_ZNK14CHsContentInfo10MaxWidgetsEv @ 30 NONAME
	_ZNK14CHsContentInfo11DescriptionEv @ 31 NONAME
	_ZNK14CHsContentInfo11PublisherIdEv @ 32 NONAME
	_ZNK14CHsContentInfo12CanBeRemovedEv @ 33 NONAME
	_ZNK14CHsContentInfo12NameAs8BitLCEv @ 34 NONAME
	_ZNK14CHsContentInfo12PublisherUidEv @ 35 NONAME
	_ZNK14CHsContentInfo16InstallationTimeEv @ 36 NONAME
	_ZNK14CHsContentInfo3UidEv @ 37 NONAME
	_ZNK14CHsContentInfo4NameEv @ 38 NONAME
	_ZNK14CHsContentInfo4TypeEv @ 39 NONAME
	_ZNK14CHsContentInfo8IconPathEv @ 40 NONAME
	_ZNK14CHsContentInfo8PluginIdEv @ 41 NONAME
	_ZTI19CHsContentInfoArray @ 42 NONAME
	_ZTV19CHsContentInfoArray @ 43 NONAME
	_ZN14CHsContentInfo8SetIsWrtEi @ 44 NONAME
	_ZNK14CHsContentInfo5IsWrtEv @ 45 NONAME

