EXPORTS
	?MarshalL@CHsContentInfo@@QAEPAVHBufC8@@XZ @ 1 NONAME ; class HBufC8 * CHsContentInfo::MarshalL(void)
	?CanBeAdded@CHsContentInfo@@QBEHXZ @ 2 NONAME ; int CHsContentInfo::CanBeAdded(void) const
	?SetDescriptionL@CHsContentInfo@@QAEXABVTDesC16@@@Z @ 3 NONAME ; void CHsContentInfo::SetDescriptionL(class TDesC16 const &)
	?IconPath@CHsContentInfo@@QBEABVTDesC16@@XZ @ 4 NONAME ; class TDesC16 const & CHsContentInfo::IconPath(void) const
	?SetPluginIdL@CHsContentInfo@@QAEXABVTDesC8@@@Z @ 5 NONAME ; void CHsContentInfo::SetPluginIdL(class TDesC8 const &)
	?SetTypeL@CHsContentInfo@@QAEXABVTDesC8@@@Z @ 6 NONAME ; void CHsContentInfo::SetTypeL(class TDesC8 const &)
	?SetMaxWidgets@CHsContentInfo@@QAEXH@Z @ 7 NONAME ; void CHsContentInfo::SetMaxWidgets(int)
	?Array@CHsContentInfoArray@@QAEAAV?$RPointerArray@VCHsContentInfo@@@@XZ @ 8 NONAME ; class RPointerArray<class CHsContentInfo> & CHsContentInfoArray::Array(void)
	?ExternalizeL@CHsContentInfo@@QAEXAAVRWriteStream@@@Z @ 9 NONAME ; void CHsContentInfo::ExternalizeL(class RWriteStream &)
	?Size@CHsContentInfo@@QAEHXZ @ 10 NONAME ; int CHsContentInfo::Size(void)
	?SetNameL@CHsContentInfo@@QAEXABVTDesC16@@@Z @ 11 NONAME ; void CHsContentInfo::SetNameL(class TDesC16 const &)
	?InternalizeL@CHsContentInfoArray@@QAEXAAVRReadStream@@@Z @ 12 NONAME ; void CHsContentInfoArray::InternalizeL(class RReadStream &)
	?Size@CHsContentInfoArray@@QAEHXZ @ 13 NONAME ; int CHsContentInfoArray::Size(void)
	?PublisherId@CHsContentInfo@@QBEABVTDesC16@@XZ @ 14 NONAME ; class TDesC16 const & CHsContentInfo::PublisherId(void) const
	?SetInstallationTime@CHsContentInfo@@QAEXAAVTTime@@@Z @ 15 NONAME ; void CHsContentInfo::SetInstallationTime(class TTime &)
	?SetPublisherUidL@CHsContentInfo@@QAEXABVTDesC8@@@Z @ 16 NONAME ; void CHsContentInfo::SetPublisherUidL(class TDesC8 const &)
	?NewL@CHsContentInfoArray@@SAPAV1@XZ @ 17 NONAME ; class CHsContentInfoArray * CHsContentInfoArray::NewL(void)
	?Name@CHsContentInfo@@QBEABVTDesC16@@XZ @ 18 NONAME ; class TDesC16 const & CHsContentInfo::Name(void) const
	?SetNameL@CHsContentInfo@@QAEXABVTDesC8@@@Z @ 19 NONAME ; void CHsContentInfo::SetNameL(class TDesC8 const &)
	?Type@CHsContentInfo@@QBEABVTDesC8@@XZ @ 20 NONAME ; class TDesC8 const & CHsContentInfo::Type(void) const
	?NewLC@CHsContentInfo@@SAPAV1@XZ @ 21 NONAME ; class CHsContentInfo * CHsContentInfo::NewLC(void)
	?InstallationTime@CHsContentInfo@@QBE?AVTTime@@XZ @ 22 NONAME ; class TTime CHsContentInfo::InstallationTime(void) const
	?NewL@CHsContentInfo@@SAPAV1@AAVRReadStream@@@Z @ 23 NONAME ; class CHsContentInfo * CHsContentInfo::NewL(class RReadStream &)
	?CloneL@CHsContentInfo@@QAEPAV1@XZ @ 24 NONAME ; class CHsContentInfo * CHsContentInfo::CloneL(void)
	?SetCanBeAdded@CHsContentInfo@@QAEXH@Z @ 25 NONAME ; void CHsContentInfo::SetCanBeAdded(int)
	?ExternalizeL@CHsContentInfoArray@@QAEXAAVRWriteStream@@@Z @ 26 NONAME ; void CHsContentInfoArray::ExternalizeL(class RWriteStream &)
	?SetUidL@CHsContentInfo@@QAEXABVTDesC8@@@Z @ 27 NONAME ; void CHsContentInfo::SetUidL(class TDesC8 const &)
	?MaxWidgets@CHsContentInfo@@QBEHXZ @ 28 NONAME ; int CHsContentInfo::MaxWidgets(void) const
	?Uid@CHsContentInfo@@QBEABVTDesC8@@XZ @ 29 NONAME ; class TDesC8 const & CHsContentInfo::Uid(void) const
	?MarshalL@CHsContentInfoArray@@QAEPAVHBufC8@@XZ @ 30 NONAME ; class HBufC8 * CHsContentInfoArray::MarshalL(void)
	?SetPublisherIdL@CHsContentInfo@@QAEXABVTDesC16@@@Z @ 31 NONAME ; void CHsContentInfo::SetPublisherIdL(class TDesC16 const &)
	?InternalizeL@CHsContentInfo@@QAEXAAVRReadStream@@@Z @ 32 NONAME ; void CHsContentInfo::InternalizeL(class RReadStream &)
	?CanBeRemoved@CHsContentInfo@@QBEHXZ @ 33 NONAME ; int CHsContentInfo::CanBeRemoved(void) const
	?SetCanBeRemoved@CHsContentInfo@@QAEXH@Z @ 34 NONAME ; void CHsContentInfo::SetCanBeRemoved(int)
	?SetIconPathL@CHsContentInfo@@QAEXABVTDesC16@@@Z @ 35 NONAME ; void CHsContentInfo::SetIconPathL(class TDesC16 const &)
	?Description@CHsContentInfo@@QBEABVTDesC16@@XZ @ 36 NONAME ; class TDesC16 const & CHsContentInfo::Description(void) const
	?NewL@CHsContentInfo@@SAPAV1@XZ @ 37 NONAME ; class CHsContentInfo * CHsContentInfo::NewL(void)
	?PublisherUid@CHsContentInfo@@QBEABVTDesC8@@XZ @ 38 NONAME ; class TDesC8 const & CHsContentInfo::PublisherUid(void) const
	?NameAs8BitLC@CHsContentInfo@@QBEPAVHBufC8@@XZ @ 39 NONAME ; class HBufC8 * CHsContentInfo::NameAs8BitLC(void) const
	?PluginId@CHsContentInfo@@QBEABVTDesC8@@XZ @ 40 NONAME ; class TDesC8 const & CHsContentInfo::PluginId(void) const
	?NewL@CHsContentInfoArray@@SAPAV1@AAVRReadStream@@@Z @ 41 NONAME ; class CHsContentInfoArray * CHsContentInfoArray::NewL(class RReadStream &)
	?IsWrt@CHsContentInfo@@QBEHXZ @ 42 NONAME ; int CHsContentInfo::IsWrt(void) const
	?SetIsWrt@CHsContentInfo@@QAEXH@Z @ 43 NONAME ; void CHsContentInfo::SetIsWrt(int)

