EXPORTS
	?NewLC@CObjectMap@HSPluginSettingsIf@@SAPAV12@XZ @ 1 NONAME ; class HSPluginSettingsIf::CObjectMap * HSPluginSettingsIf::CObjectMap::NewLC(void)
	?NewLC@CPluginMap@HSPluginSettingsIf@@SAPAV12@XZ @ 2 NONAME ; class HSPluginSettingsIf::CPluginMap * HSPluginSettingsIf::CPluginMap::NewLC(void)
	?SetPluginUidL@CPluginMap@HSPluginSettingsIf@@QAEAAV12@ABVTDesC8@@@Z @ 3 NONAME ; class HSPluginSettingsIf::CPluginMap & HSPluginSettingsIf::CPluginMap::SetPluginUidL(class TDesC8 const &)
	?NewL@CItemMap@HSPluginSettingsIf@@SAPAV12@XZ @ 4 NONAME ; class HSPluginSettingsIf::CItemMap * HSPluginSettingsIf::CItemMap::NewL(void)
	?Name@CPluginInfo@HSPluginSettingsIf@@QBEABVTDesC8@@XZ @ 5 NONAME ; class TDesC8 const & HSPluginSettingsIf::CPluginInfo::Name(void) const
	??1CItemMap@HSPluginSettingsIf@@UAE@XZ @ 6 NONAME ; HSPluginSettingsIf::CItemMap::~CItemMap(void)
	?NewLC@CHspsConfiguration@HSPluginSettingsIf@@SAPAV12@XZ @ 7 NONAME ; class HSPluginSettingsIf::CHspsConfiguration * HSPluginSettingsIf::CHspsConfiguration::NewLC(void)
	?InitializeL@CHomescreenSettings@HSPluginSettingsIf@@SAXABVTDesC8@@@Z @ 8 NONAME ; void HSPluginSettingsIf::CHomescreenSettings::InitializeL(class TDesC8 const &)
	?AddObjectMapL@CHspsConfiguration@HSPluginSettingsIf@@QAEAAV12@PAVCObjectMap@2@@Z @ 9 NONAME ; class HSPluginSettingsIf::CHspsConfiguration & HSPluginSettingsIf::CHspsConfiguration::AddObjectMapL(class HSPluginSettingsIf::CObjectMap *)
	?Value@CPropertyMap@HSPluginSettingsIf@@QBEABVTDesC8@@XZ @ 10 NONAME ; class TDesC8 const & HSPluginSettingsIf::CPropertyMap::Value(void) const
	?PluginInfo@CHspsConfiguration@HSPluginSettingsIf@@QAEAAVCPluginInfo@2@XZ @ 11 NONAME ; class HSPluginSettingsIf::CPluginInfo & HSPluginSettingsIf::CHspsConfiguration::PluginInfo(void)
	?ItemName@CItemMap@HSPluginSettingsIf@@QBEABVTDesC8@@XZ @ 12 NONAME ; class TDesC8 const & HSPluginSettingsIf::CItemMap::ItemName(void) const
	?Settings@CHspsConfiguration@HSPluginSettingsIf@@QAEAAV?$RPointerArray@VCItemMap@HSPluginSettingsIf@@@@XZ @ 13 NONAME ; class RPointerArray<class HSPluginSettingsIf::CItemMap> & HSPluginSettingsIf::CHspsConfiguration::Settings(void)
	??1CPluginInfo@HSPluginSettingsIf@@UAE@XZ @ 14 NONAME ; HSPluginSettingsIf::CPluginInfo::~CPluginInfo(void)
	?ItemId@CItemMap@HSPluginSettingsIf@@QBEABVTDesC8@@XZ @ 15 NONAME ; class TDesC8 const & HSPluginSettingsIf::CItemMap::ItemId(void) const
	?SetConfigurationStateL@CPluginInfo@HSPluginSettingsIf@@QAEAAV12@ABVTDesC8@@@Z @ 16 NONAME ; class HSPluginSettingsIf::CPluginInfo & HSPluginSettingsIf::CPluginInfo::SetConfigurationStateL(class TDesC8 const &)
	?NewLC@CPluginInfo@HSPluginSettingsIf@@SAPAV12@XZ @ 17 NONAME ; class HSPluginSettingsIf::CPluginInfo * HSPluginSettingsIf::CPluginInfo::NewLC(void)
	?AddPropertyMapL@CItemMap@HSPluginSettingsIf@@QAEAAV12@PAVCPropertyMap@2@@Z @ 18 NONAME ; class HSPluginSettingsIf::CItemMap & HSPluginSettingsIf::CItemMap::AddPropertyMapL(class HSPluginSettingsIf::CPropertyMap *)
	?ConfigurationState@CPluginInfo@HSPluginSettingsIf@@QBEABVTDesC8@@XZ @ 19 NONAME ; class TDesC8 const & HSPluginSettingsIf::CPluginInfo::ConfigurationState(void) const
	?AddPluginMapL@CHspsConfiguration@HSPluginSettingsIf@@QAEAAV12@PAVCPluginMap@2@@Z @ 20 NONAME ; class HSPluginSettingsIf::CHspsConfiguration & HSPluginSettingsIf::CHspsConfiguration::AddPluginMapL(class HSPluginSettingsIf::CPluginMap *)
	?PluginUid@CPluginMap@HSPluginSettingsIf@@QBEABVTDesC8@@XZ @ 21 NONAME ; class TDesC8 const & HSPluginSettingsIf::CPluginMap::PluginUid(void) const
	?PluginId@CPluginMap@HSPluginSettingsIf@@QBEABVTDesC8@@XZ @ 22 NONAME ; class TDesC8 const & HSPluginSettingsIf::CPluginMap::PluginId(void) const
	?SetMediaTypeL@CObjectMap@HSPluginSettingsIf@@QAEAAV12@ABVTDesC8@@@Z @ 23 NONAME ; class HSPluginSettingsIf::CObjectMap & HSPluginSettingsIf::CObjectMap::SetMediaTypeL(class TDesC8 const &)
	?Instance@CHomescreenSettings@HSPluginSettingsIf@@SAPAV12@XZ @ 24 NONAME ; class HSPluginSettingsIf::CHomescreenSettings * HSPluginSettingsIf::CHomescreenSettings::Instance(void)
	?NewL@CHspsConfiguration@HSPluginSettingsIf@@SAPAV12@XZ @ 25 NONAME ; class HSPluginSettingsIf::CHspsConfiguration * HSPluginSettingsIf::CHspsConfiguration::NewL(void)
	?GetSettingsL@CHomescreenSettings@HSPluginSettingsIf@@UAEHABVTDesC8@@AAV?$RPointerArray@VCItemMap@HSPluginSettingsIf@@@@@Z @ 26 NONAME ; int HSPluginSettingsIf::CHomescreenSettings::GetSettingsL(class TDesC8 const &, class RPointerArray<class HSPluginSettingsIf::CItemMap> &)
	?NewLC@CPropertyMap@HSPluginSettingsIf@@SAPAV12@XZ @ 27 NONAME ; class HSPluginSettingsIf::CPropertyMap * HSPluginSettingsIf::CPropertyMap::NewLC(void)
	?NameL@CObjectMap@HSPluginSettingsIf@@QBEABVTDesC8@@XZ @ 28 NONAME ; class TDesC8 const & HSPluginSettingsIf::CObjectMap::NameL(void) const
	?SetItemNameL@CItemMap@HSPluginSettingsIf@@QAEAAV12@ABVTDesC8@@@Z @ 29 NONAME ; class HSPluginSettingsIf::CItemMap & HSPluginSettingsIf::CItemMap::SetItemNameL(class TDesC8 const &)
	?SetUidL@CPluginInfo@HSPluginSettingsIf@@QAEAAV12@ABVTDesC8@@@Z @ 30 NONAME ; class HSPluginSettingsIf::CPluginInfo & HSPluginSettingsIf::CPluginInfo::SetUidL(class TDesC8 const &)
	?Properties@CItemMap@HSPluginSettingsIf@@QBEAAV?$RPointerArray@VCPropertyMap@HSPluginSettingsIf@@@@XZ @ 31 NONAME ; class RPointerArray<class HSPluginSettingsIf::CPropertyMap> & HSPluginSettingsIf::CItemMap::Properties(void) const
	?NewL@CPropertyMap@HSPluginSettingsIf@@SAPAV12@XZ @ 32 NONAME ; class HSPluginSettingsIf::CPropertyMap * HSPluginSettingsIf::CPropertyMap::NewL(void)
	?Type@CPluginInfo@HSPluginSettingsIf@@QBEABVTDesC8@@XZ @ 33 NONAME ; class TDesC8 const & HSPluginSettingsIf::CPluginInfo::Type(void) const
	?MediaType@CObjectMap@HSPluginSettingsIf@@QBEABVTDesC8@@XZ @ 34 NONAME ; class TDesC8 const & HSPluginSettingsIf::CObjectMap::MediaType(void) const
	??1CPluginMap@HSPluginSettingsIf@@UAE@XZ @ 35 NONAME ; HSPluginSettingsIf::CPluginMap::~CPluginMap(void)
	?SetPluginIdL@CPluginMap@HSPluginSettingsIf@@QAEAAV12@ABVTDesC8@@@Z @ 36 NONAME ; class HSPluginSettingsIf::CPluginMap & HSPluginSettingsIf::CPluginMap::SetPluginIdL(class TDesC8 const &)
	?Resources@CHspsConfiguration@HSPluginSettingsIf@@QAEAAV?$RPointerArray@VCObjectMap@HSPluginSettingsIf@@@@XZ @ 37 NONAME ; class RPointerArray<class HSPluginSettingsIf::CObjectMap> & HSPluginSettingsIf::CHspsConfiguration::Resources(void)
	?Path@CObjectMap@HSPluginSettingsIf@@QBEABVTDesC8@@XZ @ 38 NONAME ; class TDesC8 const & HSPluginSettingsIf::CObjectMap::Path(void) const
	?SetSettingsL@CHomescreenSettings@HSPluginSettingsIf@@UAEHABVTDesC8@@ABV?$RPointerArray@VCItemMap@HSPluginSettingsIf@@@@H@Z @ 39 NONAME ; int HSPluginSettingsIf::CHomescreenSettings::SetSettingsL(class TDesC8 const &, class RPointerArray<class HSPluginSettingsIf::CItemMap> const &, int)
	?Name@CPropertyMap@HSPluginSettingsIf@@QBEABVTDesC8@@XZ @ 40 NONAME ; class TDesC8 const & HSPluginSettingsIf::CPropertyMap::Name(void) const
	?NewL@CObjectMap@HSPluginSettingsIf@@SAPAV12@XZ @ 41 NONAME ; class HSPluginSettingsIf::CObjectMap * HSPluginSettingsIf::CObjectMap::NewL(void)
	?NewL@CPluginMap@HSPluginSettingsIf@@SAPAV12@XZ @ 42 NONAME ; class HSPluginSettingsIf::CPluginMap * HSPluginSettingsIf::CPluginMap::NewL(void)
	?SetPathL@CObjectMap@HSPluginSettingsIf@@QAEAAV12@ABVTDesC8@@@Z @ 43 NONAME ; class HSPluginSettingsIf::CObjectMap & HSPluginSettingsIf::CObjectMap::SetPathL(class TDesC8 const &)
	?PluginMaps@CHspsConfiguration@HSPluginSettingsIf@@QAEAAV?$RPointerArray@VCPluginMap@HSPluginSettingsIf@@@@XZ @ 44 NONAME ; class RPointerArray<class HSPluginSettingsIf::CPluginMap> & HSPluginSettingsIf::CHspsConfiguration::PluginMaps(void)
	??1CPropertyMap@HSPluginSettingsIf@@UAE@XZ @ 45 NONAME ; HSPluginSettingsIf::CPropertyMap::~CPropertyMap(void)
	?SetInterfaceL@CPluginInfo@HSPluginSettingsIf@@QAEAAV12@ABVTDesC8@@@Z @ 46 NONAME ; class HSPluginSettingsIf::CPluginInfo & HSPluginSettingsIf::CPluginInfo::SetInterfaceL(class TDesC8 const &)
	?ConfId@CHspsConfiguration@HSPluginSettingsIf@@QBEABVTDesC8@@XZ @ 47 NONAME ; class TDesC8 const & HSPluginSettingsIf::CHspsConfiguration::ConfId(void) const
	?Uid@CPluginInfo@HSPluginSettingsIf@@QBEABVTDesC8@@XZ @ 48 NONAME ; class TDesC8 const & HSPluginSettingsIf::CPluginInfo::Uid(void) const
	?AddObserverL@CHomescreenSettings@HSPluginSettingsIf@@QAEXPAVMHomeScreenSettingsObserver@2@@Z @ 49 NONAME ; void HSPluginSettingsIf::CHomescreenSettings::AddObserverL(class HSPluginSettingsIf::MHomeScreenSettingsObserver *)
	?UnInitialize@CHomescreenSettings@HSPluginSettingsIf@@SAXXZ @ 50 NONAME ; void HSPluginSettingsIf::CHomescreenSettings::UnInitialize(void)
	?SetValueL@CPropertyMap@HSPluginSettingsIf@@QAEAAV12@ABVTDesC8@@@Z @ 51 NONAME ; class HSPluginSettingsIf::CPropertyMap & HSPluginSettingsIf::CPropertyMap::SetValueL(class TDesC8 const &)
	?Interface@CPluginInfo@HSPluginSettingsIf@@QBEABVTDesC8@@XZ @ 52 NONAME ; class TDesC8 const & HSPluginSettingsIf::CPluginInfo::Interface(void) const
	?SetTypeL@CPluginInfo@HSPluginSettingsIf@@QAEAAV12@ABVTDesC8@@@Z @ 53 NONAME ; class HSPluginSettingsIf::CPluginInfo & HSPluginSettingsIf::CPluginInfo::SetTypeL(class TDesC8 const &)
	?SetNameL@CPluginInfo@HSPluginSettingsIf@@QAEAAV12@ABVTDesC8@@@Z @ 54 NONAME ; class HSPluginSettingsIf::CPluginInfo & HSPluginSettingsIf::CPluginInfo::SetNameL(class TDesC8 const &)
	?NewL@CPluginInfo@HSPluginSettingsIf@@SAPAV12@XZ @ 55 NONAME ; class HSPluginSettingsIf::CPluginInfo * HSPluginSettingsIf::CPluginInfo::NewL(void)
	?SetItemIdL@CItemMap@HSPluginSettingsIf@@QAEAAV12@ABVTDesC8@@@Z @ 56 NONAME ; class HSPluginSettingsIf::CItemMap & HSPluginSettingsIf::CItemMap::SetItemIdL(class TDesC8 const &)
	?NewLC@CItemMap@HSPluginSettingsIf@@SAPAV12@XZ @ 57 NONAME ; class HSPluginSettingsIf::CItemMap * HSPluginSettingsIf::CItemMap::NewLC(void)
	?AddItemMapL@CHspsConfiguration@HSPluginSettingsIf@@QAEAAV12@PAVCItemMap@2@@Z @ 58 NONAME ; class HSPluginSettingsIf::CHspsConfiguration & HSPluginSettingsIf::CHspsConfiguration::AddItemMapL(class HSPluginSettingsIf::CItemMap *)
	??1CHspsConfiguration@HSPluginSettingsIf@@UAE@XZ @ 59 NONAME ; HSPluginSettingsIf::CHspsConfiguration::~CHspsConfiguration(void)
	?RemoveObserver@CHomescreenSettings@HSPluginSettingsIf@@QAEXPAVMHomeScreenSettingsObserver@2@@Z @ 60 NONAME ; void HSPluginSettingsIf::CHomescreenSettings::RemoveObserver(class HSPluginSettingsIf::MHomeScreenSettingsObserver *)
	?SetConfIdL@CHspsConfiguration@HSPluginSettingsIf@@QAEAAV12@ABVTDesC8@@@Z @ 61 NONAME ; class HSPluginSettingsIf::CHspsConfiguration & HSPluginSettingsIf::CHspsConfiguration::SetConfIdL(class TDesC8 const &)
	?SetNameL@CPropertyMap@HSPluginSettingsIf@@QAEAAV12@ABVTDesC8@@@Z @ 62 NONAME ; class HSPluginSettingsIf::CPropertyMap & HSPluginSettingsIf::CPropertyMap::SetNameL(class TDesC8 const &)
	?SetNameL@CObjectMap@HSPluginSettingsIf@@QAEAAV12@ABVTDesC8@@@Z @ 63 NONAME ; class HSPluginSettingsIf::CObjectMap & HSPluginSettingsIf::CObjectMap::SetNameL(class TDesC8 const &)
	??1CObjectMap@HSPluginSettingsIf@@UAE@XZ @ 64 NONAME ; HSPluginSettingsIf::CObjectMap::~CObjectMap(void)

