EXPORTS
	??0CGECODefaultObject@@IAE@XZ @ 1 NONAME ; CGECODefaultObject::CGECODefaultObject(void)
	??0CGECODefaultObjectFactory@@IAE@XZ @ 2 NONAME ; CGECODefaultObjectFactory::CGECODefaultObjectFactory(void)
	??0CXCFWEntityConverter@@QAE@XZ @ 3 NONAME ; CXCFWEntityConverter::CXCFWEntityConverter(void)
	??1CGECODefaultObject@@UAE@XZ @ 4 NONAME ; CGECODefaultObject::~CGECODefaultObject(void)
	??1CGECODefaultObjectFactory@@UAE@XZ @ 5 NONAME ; CGECODefaultObjectFactory::~CGECODefaultObjectFactory(void)
	??1CXCFWEngine@@UAE@XZ @ 6 NONAME ; CXCFWEngine::~CXCFWEngine(void)
	??1CXCFWEntityConverter@@UAE@XZ @ 7 NONAME ; CXCFWEntityConverter::~CXCFWEntityConverter(void)
	??1CXCFWTree@@UAE@XZ @ 8 NONAME ; CXCFWTree::~CXCFWTree(void)
	?AddNodeL@CXCFWTree@@UAEPAVMXCFWNode@@PAVCGECOObjectBase@@@Z @ 9 NONAME ; class MXCFWNode * CXCFWTree::AddNodeL(class CGECOObjectBase *)
	?AddNodeL@CXCFWTree@@UAEPAVMXCFWNode@@PAVCGECOObjectBase@@PAV2@1@Z @ 10 NONAME ; class MXCFWNode * CXCFWTree::AddNodeL(class CGECOObjectBase *, class MXCFWNode *, class MXCFWNode *)
	?AddNodeL@CXCFWTree@@UAEPAVMXCFWNode@@PAVCGECOObjectBase@@PAV2@@Z @ 11 NONAME ; class MXCFWNode * CXCFWTree::AddNodeL(class CGECOObjectBase *, class MXCFWNode *)
	?AttributeDetailsL@CGECODefaultObject@@UAEXHAAVTPtrC16@@0AAH@Z @ 12 NONAME ; void CGECODefaultObject::AttributeDetailsL(int, class TPtrC16 &, class TPtrC16 &, int &)
	?AttributeDetailsL@CGECODefaultObjectFactory@@UAEXHAAVTPtrC16@@0AAH@Z @ 13 NONAME ; void CGECODefaultObjectFactory::AttributeDetailsL(int, class TPtrC16 &, class TPtrC16 &, int &)
	?AttributeDetailsL@CXCFWEngine@@UAEXHAAVTPtrC16@@0AAH@Z @ 14 NONAME ; void CXCFWEngine::AttributeDetailsL(int, class TPtrC16 &, class TPtrC16 &, int &)
	?BaseConstructL@CGECODefaultObject@@IAEXABVTDesC16@@@Z @ 15 NONAME ; void CGECODefaultObject::BaseConstructL(class TDesC16 const &)
	?CancelOperation@CXCFWEngine@@QAEXXZ @ 16 NONAME ; void CXCFWEngine::CancelOperation(void)
	?CurrentState@CXCFWEngine@@QAE?AW4TXCFWEngineState@1@XZ @ 17 NONAME ; enum CXCFWEngine::TXCFWEngineState CXCFWEngine::CurrentState(void)
	?Data@CXCFWNode@@UAEPAVCGECOObjectBase@@XZ @ 18 NONAME ; class CGECOObjectBase * CXCFWNode::Data(void)
	?FirstChild@CXCFWNode@@UAEPAVMXCFWNode@@XZ @ 19 NONAME ; class MXCFWNode * CXCFWNode::FirstChild(void)
	?GetAttribute@CGECODefaultObject@@QAEHABVTDesC16@@AAVTPtrC16@@@Z @ 20 NONAME ; int CGECODefaultObject::GetAttribute(class TDesC16 const &, class TPtrC16 &)
	?GetAttribute@CGECODefaultObject@@QAEHABVTDesC16@@AAVTPtrC16@@AAH@Z @ 21 NONAME ; int CGECODefaultObject::GetAttribute(class TDesC16 const &, class TPtrC16 &, int &)
	?GetChildNodesL@CXCFWTree@@UAEXPAVMXCFWNode@@AAV?$RPointerArray@VMXCFWNode@@@@@Z @ 22 NONAME ; void CXCFWTree::GetChildNodesL(class MXCFWNode *, class RPointerArray<class MXCFWNode> &)
	?GetContentObjectAndSetContextL@CGECODefaultObjectFactory@@UAEPAVCGECOObjectBase@@ABVTDesC16@@@Z @ 23 NONAME ; class CGECOObjectBase * CGECODefaultObjectFactory::GetContentObjectAndSetContextL(class TDesC16 const &)
	?GetNodesOfTypeL@CXCFWTree@@UAEXABVTDesC16@@AAV?$RPointerArray@VMXCFWNode@@@@PAVMXCFWNode@@H@Z @ 24 NONAME ; void CXCFWTree::GetNodesOfTypeL(class TDesC16 const &, class RPointerArray<class MXCFWNode> &, class MXCFWNode *, int)
	?GetText@CGECODefaultObject@@QAEHAAVTPtrC16@@@Z @ 25 NONAME ; int CGECODefaultObject::GetText(class TPtrC16 &)
	?HasTextData@CGECODefaultObject@@UAEHXZ @ 26 NONAME ; int CGECODefaultObject::HasTextData(void)
	?HasTextData@CGECODefaultObjectFactory@@UAEHXZ @ 27 NONAME ; int CGECODefaultObjectFactory::HasTextData(void)
	?HasTextData@CXCFWEngine@@UAEHXZ @ 28 NONAME ; int CXCFWEngine::HasTextData(void)
	?InitializeObjectL@CGECODefaultObjectFactory@@UAEXAAVMGECOAttributeProvider@@@Z @ 29 NONAME ; void CGECODefaultObjectFactory::InitializeObjectL(class MGECOAttributeProvider &)
	?IsLocked@CXCFWTree@@UAEHXZ @ 30 NONAME ; int CXCFWTree::IsLocked(void)
	?LastChild@CXCFWNode@@UAEPAVMXCFWNode@@XZ @ 31 NONAME ; class MXCFWNode * CXCFWNode::LastChild(void)
	?LoadL@CXCFWEngine@@QAEXAAVMXCFWTree@@ABVTDesC16@@1@Z @ 32 NONAME ; void CXCFWEngine::LoadL(class MXCFWTree &, class TDesC16 const &, class TDesC16 const &)
	?LoadL@CXCFWEngine@@QAEXAAVMXCFWTree@@ABVTDesC16@@@Z @ 33 NONAME ; void CXCFWEngine::LoadL(class MXCFWTree &, class TDesC16 const &)
	?MoveNodeL@CXCFWTree@@UAEXPAVMXCFWNode@@00@Z @ 34 NONAME ; void CXCFWTree::MoveNodeL(class MXCFWNode *, class MXCFWNode *, class MXCFWNode *)
	?NewL@CGECODefaultObject@@SAPAV1@ABVTDesC16@@@Z @ 35 NONAME ; class CGECODefaultObject * CGECODefaultObject::NewL(class TDesC16 const &)
	?NewL@CGECODefaultObjectFactory@@SAPAV1@XZ @ 36 NONAME ; class CGECODefaultObjectFactory * CGECODefaultObjectFactory::NewL(void)
	?NewL@CXCFWEngine@@SAPAV1@PAVMXCFWEngineObserver@@@Z @ 37 NONAME ; class CXCFWEngine * CXCFWEngine::NewL(class MXCFWEngineObserver *)
	?NewL@CXCFWTree@@SAPAV1@XZ @ 38 NONAME ; class CXCFWTree * CXCFWTree::NewL(void)
	?NextSibling@CXCFWNode@@UAEPAVMXCFWNode@@XZ @ 39 NONAME ; class MXCFWNode * CXCFWNode::NextSibling(void)
	?Nodes@CXCFWTree@@UAEAAV?$RPointerArray@VMXCFWNode@@@@XZ @ 40 NONAME ; class RPointerArray<class MXCFWNode> & CXCFWTree::Nodes(void)
	?NumAttributes@CGECODefaultObject@@UAEHXZ @ 41 NONAME ; int CGECODefaultObject::NumAttributes(void)
	?NumAttributes@CGECODefaultObjectFactory@@UAEHXZ @ 42 NONAME ; int CGECODefaultObjectFactory::NumAttributes(void)
	?NumAttributes@CXCFWEngine@@UAEHXZ @ 43 NONAME ; int CXCFWEngine::NumAttributes(void)
	?OutputComposedTextL@CXCFWEntityConverter@@UAEHPAVCMDXMLComposer@@ABVTDesC16@@@Z @ 44 NONAME ; int CXCFWEntityConverter::OutputComposedTextL(class CMDXMLComposer *, class TDesC16 const &)
	?Parent@CXCFWNode@@UAEPAVMXCFWNode@@XZ @ 45 NONAME ; class MXCFWNode * CXCFWNode::Parent(void)
	?PrevSibling@CXCFWNode@@UAEPAVMXCFWNode@@XZ @ 46 NONAME ; class MXCFWNode * CXCFWNode::PrevSibling(void)
	?RegisterObjectFactoryL@CXCFWEngine@@QAEXPAVCGECOObjectFactoryBase@@@Z @ 47 NONAME ; void CXCFWEngine::RegisterObjectFactoryL(class CGECOObjectFactoryBase *)
	?RemoveAttribute@CGECODefaultObject@@QAEHABVTDesC16@@@Z @ 48 NONAME ; int CGECODefaultObject::RemoveAttribute(class TDesC16 const &)
	?RemoveNodeL@CXCFWTree@@UAEXPAVMXCFWNode@@@Z @ 49 NONAME ; void CXCFWTree::RemoveNodeL(class MXCFWNode *)
	?RemoveText@CGECODefaultObject@@QAEXXZ @ 50 NONAME ; void CGECODefaultObject::RemoveText(void)
	?Root@CXCFWTree@@UAEPAVMXCFWNode@@XZ @ 51 NONAME ; class MXCFWNode * CXCFWTree::Root(void)
	?SaveL@CXCFWEngine@@QAEXAAVMXCFWTree@@ABVTDesC16@@1@Z @ 52 NONAME ; void CXCFWEngine::SaveL(class MXCFWTree &, class TDesC16 const &, class TDesC16 const &)
	?SaveL@CXCFWEngine@@QAEXAAVMXCFWTree@@ABVTDesC16@@@Z @ 53 NONAME ; void CXCFWEngine::SaveL(class MXCFWTree &, class TDesC16 const &)
	?SetAttributeL@CGECODefaultObject@@QAEXABVTDesC16@@0@Z @ 54 NONAME ; void CGECODefaultObject::SetAttributeL(class TDesC16 const &, class TDesC16 const &)
	?SetAttributeL@CGECODefaultObject@@QAEXABVTDesC16@@0H@Z @ 55 NONAME ; void CGECODefaultObject::SetAttributeL(class TDesC16 const &, class TDesC16 const &, int)
	?SetContext@CGECODefaultObjectFactory@@UAEHPAVCGECOObjectBase@@@Z @ 56 NONAME ; int CGECODefaultObjectFactory::SetContext(class CGECOObjectBase *)
	?SetLocked@CXCFWTree@@UAEXH@Z @ 57 NONAME ; void CXCFWTree::SetLocked(int)
	?SetTextL@CGECODefaultObject@@QAEXABVTDesC16@@@Z @ 58 NONAME ; void CGECODefaultObject::SetTextL(class TDesC16 const &)
	?SetTextL@CGECODefaultObject@@QAEXABVTDesC16@@H@Z @ 59 NONAME ; void CGECODefaultObject::SetTextL(class TDesC16 const &, int)
	?TextDetailsL@CGECODefaultObject@@UAEXAAVTPtrC16@@AAH@Z @ 60 NONAME ; void CGECODefaultObject::TextDetailsL(class TPtrC16 &, int &)
	?TextDetailsL@CGECODefaultObjectFactory@@UAEXAAVTPtrC16@@AAH@Z @ 61 NONAME ; void CGECODefaultObjectFactory::TextDetailsL(class TPtrC16 &, int &)
	?TextDetailsL@CXCFWEngine@@UAEXAAVTPtrC16@@AAH@Z @ 62 NONAME ; void CXCFWEngine::TextDetailsL(class TPtrC16 &, int &)
	?TypeIdentifier@CGECODefaultObject@@UAEABVTDesC16@@XZ @ 63 NONAME ; class TDesC16 const & CGECODefaultObject::TypeIdentifier(void)
	?UnRegisterObjectFactory@CXCFWEngine@@QAEHPAVCGECOObjectFactoryBase@@@Z @ 64 NONAME ; int CXCFWEngine::UnRegisterObjectFactory(class CGECOObjectFactoryBase *)
	?AttributeDetailsL@CGECODefaultObject@@UAEXHAAVTPtrC16@@0@Z @ 65 NONAME ; void CGECODefaultObject::AttributeDetailsL(int, class TPtrC16 &, class TPtrC16 &)
	?AttributeDetailsL@CGECODefaultObjectFactory@@UAEXHAAVTPtrC16@@0@Z @ 66 NONAME ; void CGECODefaultObjectFactory::AttributeDetailsL(int, class TPtrC16 &, class TPtrC16 &)
	?AttributeDetailsL@CXCFWEngine@@UAEXHAAVTPtrC16@@0@Z @ 67 NONAME ; void CXCFWEngine::AttributeDetailsL(int, class TPtrC16 &, class TPtrC16 &)

