EXPORTS
	_ZN18CTsResourceManager10ApaSessionEv @ 1 NONAME
	_ZN18CTsResourceManager4NewLEv @ 2 NONAME
	_ZN18CTsResourceManager9WsSessionEv @ 3 NONAME
	_ZN18CTsResourceManagerD0Ev @ 4 NONAME
	_ZN18CTsResourceManagerD1Ev @ 5 NONAME
	_ZN18CTsResourceManagerD2Ev @ 6 NONAME
	_ZN22CTsWindowGroupsMonitor10SubscribeLER23MTsWindowGroupsObserver @ 7 NONAME
	_ZN22CTsWindowGroupsMonitor4NewLER18MTsResourceManager @ 8 NONAME
	_ZN22CTsWindowGroupsMonitor6CancelER23MTsWindowGroupsObserver @ 9 NONAME
	_ZN22CTsWindowGroupsMonitorD0Ev @ 10 NONAME
	_ZN22CTsWindowGroupsMonitorD1Ev @ 11 NONAME
	_ZN22CTsWindowGroupsMonitorD2Ev @ 12 NONAME
	_ZN23CTsWindowGroupsObserver14BaseConstructLEv @ 13 NONAME
	_ZN23CTsWindowGroupsObserverC2ER22MTsWindowGroupsMonitor @ 14 NONAME
	_ZN23CTsWindowGroupsObserverD0Ev @ 15 NONAME
	_ZN23CTsWindowGroupsObserverD1Ev @ 16 NONAME
	_ZN23CTsWindowGroupsObserverD2Ev @ 17 NONAME
	_ZN28CTsGraphicFileScalingHandler4NewLER19MImageReadyCallBackR3RFsRK7TDesC16RK6TDesC8RK5TSizeNS_14TKindOfScalingE @ 18 NONAME
	_ZN28CTsGraphicFileScalingHandler4NewLER19MImageReadyCallBackRK10CFbsBitmapRK5TSizeNS_14TKindOfScalingE @ 19 NONAME
	_ZN28CTsGraphicFileScalingHandler5NewLCER19MImageReadyCallBackR3RFsRK7TDesC16RK6TDesC8RK5TSizeNS_14TKindOfScalingE @ 20 NONAME
	_ZN28CTsGraphicFileScalingHandler5NewLCER19MImageReadyCallBackRK10CFbsBitmapRK5TSizeNS_14TKindOfScalingE @ 21 NONAME
	_ZN28CTsGraphicFileScalingHandlerD0Ev @ 22 NONAME
	_ZN28CTsGraphicFileScalingHandlerD1Ev @ 23 NONAME
	_ZN28CTsGraphicFileScalingHandlerD2Ev @ 24 NONAME
	_ZTI18CTsResourceManager @ 25 NONAME
	_ZTI22CTsWindowGroupsMonitor @ 26 NONAME
	_ZTI23CTsWindowGroupsObserver @ 27 NONAME
	_ZTI28CTsGraphicFileScalingHandler @ 28 NONAME
	_ZTV18CTsResourceManager @ 29 NONAME
	_ZTV22CTsWindowGroupsMonitor @ 30 NONAME
	_ZTV23CTsWindowGroupsObserver @ 31 NONAME
	_ZTV28CTsGraphicFileScalingHandler @ 32 NONAME
	_ZThn28_N22CTsWindowGroupsMonitor10SubscribeLER23MTsWindowGroupsObserver @ 33 NONAME
	_ZThn28_N22CTsWindowGroupsMonitor6CancelER23MTsWindowGroupsObserver @ 34 NONAME
	_ZThn4_N18CTsResourceManager10ApaSessionEv @ 35 NONAME
	_ZThn4_N18CTsResourceManager9WsSessionEv @ 36 NONAME

