EXPORTS
	?LibEntryL@@YAPAVCTestModuleBase@@XZ @ 1 NONAME ; class CTestModuleBase * LibEntryL(void)
	?SetRequirements@@YAHAAPAVCTestModuleParam@@AAK@Z @ 2 NONAME ; int SetRequirements(class CTestModuleParam * &, unsigned long &)
	?PublishContactContextL@CHgContextUtility@@QAEXABV?$RPointerArray@VMVPbkStoreContact@@@@ABVTTimeIntervalMicroSeconds32@@@Z @ 3 NONAME ; void CHgContextUtility::PublishContactContextL(class RPointerArray<class MVPbkStoreContact> const &, class TTimeIntervalMicroSeconds32 const &)
	?PublishContactContextL@CHgContextUtility@@QAEXABVTDesC16@@ABVTTimeIntervalMicroSeconds32@@@Z @ 4 NONAME ; void CHgContextUtility::PublishContactContextL(class TDesC16 const &, class TTimeIntervalMicroSeconds32 const &)
	??1CHgContextUtility@@UAE@XZ @ 5 NONAME ; CHgContextUtility::~CHgContextUtility(void)
	?NewLC@CHgContextUtility@@SAPAV1@XZ @ 6 NONAME ; class CHgContextUtility * CHgContextUtility::NewLC(void)
	?RePublishWhenFgL@CHgContextUtility@@QAEXH@Z @ 7 NONAME ; void CHgContextUtility::RePublishWhenFgL(int)
	?PublishPhotoContextL@CHgContextUtility@@QAEXABVTDesC16@@ABVTTimeIntervalMicroSeconds32@@@Z @ 8 NONAME ; void CHgContextUtility::PublishPhotoContextL(class TDesC16 const &, class TTimeIntervalMicroSeconds32 const &)
	?PublishContextDelayedL@CHgContextUtilityBase@@QAEXABVTDesC16@@ABVMDesC16Array@@ABVTTimeIntervalMicroSeconds32@@@Z @ 9 NONAME ; void CHgContextUtilityBase::PublishContextDelayedL(class TDesC16 const &, class MDesC16Array const &, class TTimeIntervalMicroSeconds32 const &)
	?PublishContactContextL@CHgContextUtility@@QAEXABVMVPbkContactLink@@ABVTTimeIntervalMicroSeconds32@@@Z @ 10 NONAME ; void CHgContextUtility::PublishContactContextL(class MVPbkContactLink const &, class TTimeIntervalMicroSeconds32 const &)
	?PublishUrlContextL@CHgContextUtility@@QAEXABVTDesC16@@ABVTTimeIntervalMicroSeconds32@@@Z @ 11 NONAME ; void CHgContextUtility::PublishUrlContextL(class TDesC16 const &, class TTimeIntervalMicroSeconds32 const &)
	?PublishTvContextL@CHgContextUtility@@QAEXABVTDesC16@@000@Z @ 12 NONAME ; void CHgContextUtility::PublishTvContextL(class TDesC16 const &, class TDesC16 const &, class TDesC16 const &, class TDesC16 const &)
	?PublishContextL@CHgContextUtilityBase@@QAEXABVTDesC16@@ABVMDesC16Array@@@Z @ 13 NONAME ; void CHgContextUtilityBase::PublishContextL(class TDesC16 const &, class MDesC16Array const &)
	?AllowPublishFromBackground@CHgContextUtility@@QAEXH@Z @ 14 NONAME ; void CHgContextUtility::AllowPublishFromBackground(int)
	?PublishContactContextL@CHgContextUtility@@QAEXABVMVPbkStoreContact@@ABVTTimeIntervalMicroSeconds32@@@Z @ 15 NONAME ; void CHgContextUtility::PublishContactContextL(class MVPbkStoreContact const &, class TTimeIntervalMicroSeconds32 const &)
	?GetContextL@CHgContextUtilityBase@@QAEPAVHBufC16@@ABVTDesC16@@@Z @ 16 NONAME ; class HBufC16 * CHgContextUtilityBase::GetContextL(class TDesC16 const &)
	?NewL@CHgContextUtility@@SAPAV1@XZ @ 17 NONAME ; class CHgContextUtility * CHgContextUtility::NewL(void)
	?PublishContextDelayedL@CHgContextUtilityBase@@QAEXABVTDesC16@@0ABVTTimeIntervalMicroSeconds32@@@Z @ 18 NONAME ; void CHgContextUtilityBase::PublishContextDelayedL(class TDesC16 const &, class TDesC16 const &, class TTimeIntervalMicroSeconds32 const &)
	?SplitCombinedStringL@CHgContextUtilityImpl@@SAXABVTDesC16@@AAVCDesC16Array@@@Z @ 19 NONAME ABSENT ; void CHgContextUtilityImpl::SplitCombinedStringL(class TDesC16 const &, class CDesC16Array &)
	?PublishTextContextL@CHgContextUtility@@QAEXABVTDesC16@@ABVTTimeIntervalMicroSeconds32@@@Z @ 20 NONAME ; void CHgContextUtility::PublishTextContextL(class TDesC16 const &, class TTimeIntervalMicroSeconds32 const &)
	?PublishContextL@CHgContextUtilityBase@@QAEXABVTDesC16@@0@Z @ 21 NONAME ; void CHgContextUtilityBase::PublishContextL(class TDesC16 const &, class TDesC16 const &)
	?GetContextL@CHgContextUtilityBase@@QAEPAVHBufC16@@ABVTDesC16@@0@Z @ 22 NONAME ; class HBufC16 * CHgContextUtilityBase::GetContextL(class TDesC16 const &, class TDesC16 const &)
	?BuildCombinedStringL@CHgContextUtilityImpl@@SAPAVHBufC16@@ABVMDesC16Array@@@Z @ 23 NONAME ABSENT ; class HBufC16 * CHgContextUtilityImpl::BuildCombinedStringL(class MDesC16Array const &)
	?PublishPhotoContextL@CHgContextUtility@@QAEXKAAVCMdESession@@ABVTTimeIntervalMicroSeconds32@@@Z @ 24 NONAME ; void CHgContextUtility::PublishPhotoContextL(unsigned long, class CMdESession &, class TTimeIntervalMicroSeconds32 const &)
	?PublishContactContextL@CHgContextUtility@@QAEXABVCVPbkContactLinkArray@@ABVTTimeIntervalMicroSeconds32@@@Z @ 25 NONAME ; void CHgContextUtility::PublishContactContextL(class CVPbkContactLinkArray const &, class TTimeIntervalMicroSeconds32 const &)
	?PublishTimeContextL@CHgContextUtility@@QAEXABVTTime@@ABVTTimeIntervalMicroSeconds32@@@Z @ 26 NONAME ; void CHgContextUtility::PublishTimeContextL(class TTime const &, class TTimeIntervalMicroSeconds32 const &)
	?PublishContactContextL@CHgContextUtility@@QAEXABVMDesC16Array@@ABVTTimeIntervalMicroSeconds32@@@Z @ 27 NONAME ; void CHgContextUtility::PublishContactContextL(class MDesC16Array const &, class TTimeIntervalMicroSeconds32 const &)
	?PublishServiceIdL@CHgContextUtility@@QAEXABVTDesC16@@0ABVTTimeIntervalMicroSeconds32@@@Z @ 28 NONAME ; void CHgContextUtility::PublishServiceIdL(class TDesC16 const &, class TDesC16 const &, class TTimeIntervalMicroSeconds32 const &)
	?PublishMusicContextL@CHgContextUtility@@QAEXABVTTimeIntervalMicroSeconds32@@@Z @ 29 NONAME ; void CHgContextUtility::PublishMusicContextL(class TTimeIntervalMicroSeconds32 const &)
	?AddMusicContextInfoL@CHgContextUtility@@QAEXABVTDesC16@@0@Z @ 30 NONAME ; void CHgContextUtility::AddMusicContextInfoL(class TDesC16 const &, class TDesC16 const &)
	?MatchPhoneNumberL@CHgCtxContactMatcher@@QAEXABVTDesC16@@HW4TVPbkPhoneNumberMatchFlags@CVPbkPhoneNumberMatchStrategy@@AAVCVPbkContactLinkArray@@AAVTRequestStatus@@@Z @ 31 NONAME ; void CHgCtxContactMatcher::MatchPhoneNumberL(class TDesC16 const &, int, enum CVPbkPhoneNumberMatchStrategy::TVPbkPhoneNumberMatchFlags, class CVPbkContactLinkArray &, class TRequestStatus &)
	?OpenStoreL@CHgCtxContactMatcher@@QAEXABVCVPbkContactStoreUriArray@@AAVTRequestStatus@@@Z @ 32 NONAME ; void CHgCtxContactMatcher::OpenStoreL(class CVPbkContactStoreUriArray const &, class TRequestStatus &)
	?SplitAndMatchL@CHgCtxContactMatcher@@QAEXABVTDesC16@@ABVMVPbkFieldTypeList@@AAVCVPbkContactLinkArray@@@Z @ 33 NONAME ; void CHgCtxContactMatcher::SplitAndMatchL(class TDesC16 const &, class MVPbkFieldTypeList const &, class CVPbkContactLinkArray &)
	?GetFieldDataBinaryL@CHgCtxContactMatcher@@QBE?AVTPtrC8@@ABVMVPbkStoreContact@@ABVMVPbkFieldType@@@Z @ 34 NONAME ; class TPtrC8 CHgCtxContactMatcher::GetFieldDataBinaryL(class MVPbkStoreContact const &, class MVPbkFieldType const &) const
	?OpenAllStoresL@CHgCtxContactMatcher@@QAEXXZ @ 35 NONAME ; void CHgCtxContactMatcher::OpenAllStoresL(void)
	?GetNameL@CHgCtxContactMatcher@@QAEPAVHBufC16@@AAVMVPbkStoreContactFieldCollection@@@Z @ 36 NONAME ; class HBufC16 * CHgCtxContactMatcher::GetNameL(class MVPbkStoreContactFieldCollection &)
	?OpenDefaultMatchStoresL@CHgCtxContactMatcher@@QAEXAAVTRequestStatus@@@Z @ 37 NONAME ; void CHgCtxContactMatcher::OpenDefaultMatchStoresL(class TRequestStatus &)
	?OpenAllStoresL@CHgCtxContactMatcher@@QAEXAAVTRequestStatus@@@Z @ 38 NONAME ; void CHgCtxContactMatcher::OpenAllStoresL(class TRequestStatus &)
	?GetFieldDataDateTimeL@CHgCtxContactMatcher@@QBE?AVTTime@@ABVMVPbkStoreContact@@ABVMVPbkFieldType@@@Z @ 39 NONAME ; class TTime CHgCtxContactMatcher::GetFieldDataDateTimeL(class MVPbkStoreContact const &, class MVPbkFieldType const &) const
	?SplitFindStringL@CHgCtxContactMatcher@@SAPAVCDesC16Array@@ABVTDesC16@@@Z @ 40 NONAME ; class CDesC16Array * CHgCtxContactMatcher::SplitFindStringL(class TDesC16 const &)
	?GetAddressesL@CHgCtxContactMatcher@@QAEXAAVMVPbkStoreContactFieldCollection@@AAVCDesC16Array@@@Z @ 41 NONAME ; void CHgCtxContactMatcher::GetAddressesL(class MVPbkStoreContactFieldCollection &, class CDesC16Array &)
	?OpenOwnNumberStoresL@CHgCtxContactMatcher@@QAEXAAVTRequestStatus@@@Z @ 42 NONAME ; void CHgCtxContactMatcher::OpenOwnNumberStoresL(class TRequestStatus &)
	?GetCustomFieldL@CHgCtxContactMatcher@@QAEXAAVMVPbkStoreContactFieldCollection@@AAVCDesC16Array@@W4TVPbkFieldTypeName@@W4TVPbkFieldTypeParameter@@@Z @ 43 NONAME ; void CHgCtxContactMatcher::GetCustomFieldL(class MVPbkStoreContactFieldCollection &, class CDesC16Array &, enum TVPbkFieldTypeName, enum TVPbkFieldTypeParameter)
	?MatchDataL@CHgCtxContactMatcher@@QAEXABVTDesC16@@ABVMVPbkFieldTypeList@@AAVCVPbkContactLinkArray@@@Z @ 44 NONAME ; void CHgCtxContactMatcher::MatchDataL(class TDesC16 const &, class MVPbkFieldTypeList const &, class CVPbkContactLinkArray &)
	?IsOwnNumberL@CHgCtxContactMatcher@@QAEXABVTDesC16@@AAVTRequestStatus@@@Z @ 45 NONAME ; void CHgCtxContactMatcher::IsOwnNumberL(class TDesC16 const &, class TRequestStatus &)
	?IsOwnNumberL@CHgCtxContactMatcher@@QAEXABVTDesC16@@AAH@Z @ 46 NONAME ; void CHgCtxContactMatcher::IsOwnNumberL(class TDesC16 const &, int &)
	?OpenOwnNumberStoresL@CHgCtxContactMatcher@@QAEXXZ @ 47 NONAME ; void CHgCtxContactMatcher::OpenOwnNumberStoresL(void)
	?GetWebAddressesL@CHgCtxContactMatcher@@QAEXAAVMVPbkStoreContactFieldCollection@@AAVCDesC16Array@@W4TWebAddressesType@1@@Z @ 48 NONAME ; void CHgCtxContactMatcher::GetWebAddressesL(class MVPbkStoreContactFieldCollection &, class CDesC16Array &, enum CHgCtxContactMatcher::TWebAddressesType)
	?FieldTypes@CHgCtxContactMatcher@@QBEABVMVPbkFieldTypeList@@XZ @ 49 NONAME ; class MVPbkFieldTypeList const & CHgCtxContactMatcher::FieldTypes(void) const
	?GetContactManager@CHgCtxContactMatcher@@QAEAAVCVPbkContactManager@@XZ @ 50 NONAME ; class CVPbkContactManager & CHgCtxContactMatcher::GetContactManager(void)
	?GetNamesForFindL@CHgCtxContactMatcher@@QAEPAVHBufC16@@AAVMVPbkStoreContactFieldCollection@@@Z @ 51 NONAME ; class HBufC16 * CHgCtxContactMatcher::GetNamesForFindL(class MVPbkStoreContactFieldCollection &)
	?GetNumbersL@CHgCtxContactMatcher@@QAEXAAVMVPbkStoreContactFieldCollection@@AAVCDesC16Array@@@Z @ 52 NONAME ; void CHgCtxContactMatcher::GetNumbersL(class MVPbkStoreContactFieldCollection &, class CDesC16Array &)
	?ContactNameFormatterL@CHgCtxContactMatcher@@QAEAAVMPbk2ContactNameFormatter@@XZ @ 53 NONAME ; class MPbk2ContactNameFormatter & CHgCtxContactMatcher::ContactNameFormatterL(void)
	?IsEmailAddressL@CHgCtxContactMatcher@@SAHABVTDesC16@@@Z @ 54 NONAME ; int CHgCtxContactMatcher::IsEmailAddressL(class TDesC16 const &)
	?IsPhoneNumberL@CHgCtxContactMatcher@@SAHABVTDesC16@@@Z @ 55 NONAME ; int CHgCtxContactMatcher::IsPhoneNumberL(class TDesC16 const &)
	?GetFieldDataTextL@CHgCtxContactMatcher@@QBE?AVTPtrC16@@ABVMVPbkStoreContact@@ABVMVPbkFieldType@@@Z @ 56 NONAME ; class TPtrC16 CHgCtxContactMatcher::GetFieldDataTextL(class MVPbkStoreContact const &, class MVPbkFieldType const &) const
	?RegisterContactObserverL@CHgCtxContactMatcher@@QAEXAAVMHgCtxContactObserver@@@Z @ 57 NONAME ; void CHgCtxContactMatcher::RegisterContactObserverL(class MHgCtxContactObserver &)
	?GetContactStoresL@CHgCtxContactMatcher@@QAEAAVMVPbkContactStoreList@@XZ @ 58 NONAME ; class MVPbkContactStoreList & CHgCtxContactMatcher::GetContactStoresL(void)
	?GetStoreContactL@CHgCtxContactMatcher@@QAEXABVMVPbkContactLink@@PAPAVMVPbkStoreContact@@AAVTRequestStatus@@@Z @ 59 NONAME ; void CHgCtxContactMatcher::GetStoreContactL(class MVPbkContactLink const &, class MVPbkStoreContact * *, class TRequestStatus &)
	?CancelOperation@CHgCtxContactMatcher@@QAEXXZ @ 60 NONAME ; void CHgCtxContactMatcher::CancelOperation(void)
	?NewLC@CHgCtxContactMatcher@@SAPAV1@PAVRFs@@@Z @ 61 NONAME ; class CHgCtxContactMatcher * CHgCtxContactMatcher::NewLC(class RFs *)
	?GetCustomFieldTypeLC@CHgCtxContactMatcher@@QAEPAVCVPbkFieldTypeRefsList@@W4TVPbkFieldTypeName@@W4TVPbkFieldTypeParameter@@@Z @ 62 NONAME ; class CVPbkFieldTypeRefsList * CHgCtxContactMatcher::GetCustomFieldTypeLC(enum TVPbkFieldTypeName, enum TVPbkFieldTypeParameter)
	?CloseStoresL@CHgCtxContactMatcher@@QAEXXZ @ 63 NONAME ; void CHgCtxContactMatcher::CloseStoresL(void)
	?SplitMsgContactL@CHgCtxContactMatcher@@SAXABVTDesC16@@AAVCDesC16Array@@@Z @ 64 NONAME ; void CHgCtxContactMatcher::SplitMsgContactL(class TDesC16 const &, class CDesC16Array &)
	?GetImppFieldL@CHgCtxContactMatcher@@QAEXAAVMVPbkStoreContactFieldCollection@@PAVCDesC16Array@@11@Z @ 65 NONAME ; void CHgCtxContactMatcher::GetImppFieldL(class MVPbkStoreContactFieldCollection &, class CDesC16Array *, class CDesC16Array *, class CDesC16Array *)
	?GetNamesForFindL@CHgCtxContactMatcher@@QAEXAAVMVPbkStoreContactFieldCollection@@AAVCDesC16Array@@@Z @ 66 NONAME ; void CHgCtxContactMatcher::GetNamesForFindL(class MVPbkStoreContactFieldCollection &, class CDesC16Array &)
	?NewL@CHgCtxContactMatcher@@SAPAV1@PAVRFs@@@Z @ 67 NONAME ; class CHgCtxContactMatcher * CHgCtxContactMatcher::NewL(class RFs *)
	?MatchDataL@CHgCtxContactMatcher@@QAEXABVMDesC16Array@@ABVMVPbkFieldTypeList@@AAVCVPbkContactLinkArray@@ABVTCallBack@@@Z @ 68 NONAME ; void CHgCtxContactMatcher::MatchDataL(class MDesC16Array const &, class MVPbkFieldTypeList const &, class CVPbkContactLinkArray &, class TCallBack const &)
	?OpenStoreL@CHgCtxContactMatcher@@QAEXABVCVPbkContactStoreUriArray@@@Z @ 69 NONAME ; void CHgCtxContactMatcher::OpenStoreL(class CVPbkContactStoreUriArray const &)
	?FindContactWithBirthdayL@CHgCtxContactMatcher@@QAEXABVTTime@@AAVCVPbkContactLinkArray@@@Z @ 70 NONAME ; void CHgCtxContactMatcher::FindContactWithBirthdayL(class TTime const &, class CVPbkContactLinkArray &)
	?LookupL@CHgCtxContactMatcher@@QAEXABVTDesC16@@AAVCVPbkContactLinkArray@@@Z @ 71 NONAME ; void CHgCtxContactMatcher::LookupL(class TDesC16 const &, class CVPbkContactLinkArray &)
	?UnregisterContactObserver@CHgCtxContactMatcher@@QAEXAAVMHgCtxContactObserver@@@Z @ 72 NONAME ; void CHgCtxContactMatcher::UnregisterContactObserver(class MHgCtxContactObserver &)
	?MatchPhoneNumberL@CHgCtxContactMatcher@@QAEXABVTDesC16@@HW4TVPbkPhoneNumberMatchFlags@CVPbkPhoneNumberMatchStrategy@@AAVCVPbkContactLinkArray@@@Z @ 73 NONAME ; void CHgCtxContactMatcher::MatchPhoneNumberL(class TDesC16 const &, int, enum CVPbkPhoneNumberMatchStrategy::TVPbkPhoneNumberMatchFlags, class CVPbkContactLinkArray &)
	?OpenDefaultMatchStoresL@CHgCtxContactMatcher@@QAEXXZ @ 74 NONAME ; void CHgCtxContactMatcher::OpenDefaultMatchStoresL(void)
	??1CHgCtxContactMatcher@@UAE@XZ @ 75 NONAME ; CHgCtxContactMatcher::~CHgCtxContactMatcher(void)
	?GetStoreContactL@CHgCtxContactMatcher@@QAEXABVMVPbkContactLink@@PAPAVMVPbkStoreContact@@@Z @ 76 NONAME ; void CHgCtxContactMatcher::GetStoreContactL(class MVPbkContactLink const &, class MVPbkStoreContact * *)
	?GetEmailAddressesL@CHgCtxContactMatcher@@QAEXAAVMVPbkStoreContactFieldCollection@@AAVCDesC16Array@@@Z @ 77 NONAME ; void CHgCtxContactMatcher::GetEmailAddressesL(class MVPbkStoreContactFieldCollection &, class CDesC16Array &)
	?MatchDataL@CHgCtxContactMatcher@@QAEXABVTDesC16@@ABVMVPbkFieldTypeList@@AAVCVPbkContactLinkArray@@AAVTRequestStatus@@@Z @ 78 NONAME ; void CHgCtxContactMatcher::MatchDataL(class TDesC16 const &, class MVPbkFieldTypeList const &, class CVPbkContactLinkArray &, class TRequestStatus &)
	?GetThumbnailL@CHgCtxContactMatcher@@QAEPAVCFbsBitmap@@AAVMVPbkStoreContactFieldCollection@@@Z @ 79 NONAME ; class CFbsBitmap * CHgCtxContactMatcher::GetThumbnailL(class MVPbkStoreContactFieldCollection &)
	?SplitCombinedStringL@CHgContextUtility@@SAXABVTDesC16@@AAVCDesC16Array@@@Z @ 80 NONAME ; void CHgContextUtility::SplitCombinedStringL(class TDesC16 const &, class CDesC16Array &)
	?BuildCombinedStringL@CHgContextUtility@@SAPAVHBufC16@@ABVMDesC16Array@@@Z @ 81 NONAME ; class HBufC16 * CHgContextUtility::BuildCombinedStringL(class MDesC16Array const &)
	?PublishRadioContextL@CHgContextUtility@@QAEXABVTDesC16@@000@Z @ 82 NONAME ; void CHgContextUtility::PublishRadioContextL(class TDesC16 const &, class TDesC16 const &, class TDesC16 const &, class TDesC16 const &)

