EXPORTS
	?NewLC@CCaInnerNotifierFilter@@SAPAV1@W4TNotifierType@1@@Z @ 1 NONAME ; class CCaInnerNotifierFilter * CCaInnerNotifierFilter::NewLC(enum CCaInnerNotifierFilter::TNotifierType)
	?ExternalizeL@RCaIdsArray@@QBEXAAVRWriteStream@@@Z @ 2 NONAME ; void RCaIdsArray::ExternalizeL(class RWriteStream &) const
	?GetAttributes@CCaInnerQuery@@QBEABVRCaEntryAttrArray@@XZ @ 3 NONAME ; class RCaEntryAttrArray const & CCaInnerQuery::GetAttributes(void) const
	?SetEntryTypeNameL@CCaInnerEntry@@QAEXABVTDesC16@@@Z @ 4 NONAME ; void CCaInnerEntry::SetEntryTypeNameL(class TDesC16 const &)
	?SetSort@CCaInnerQuery@@QAEXW4TSortAttribute@1@@Z @ 5 NONAME ; void CCaInnerQuery::SetSort(enum CCaInnerQuery::TSortAttribute)
	?SetIconId@CCaInnerEntry@@QAEXH@Z @ 6 NONAME ; void CCaInnerEntry::SetIconId(int)
	?SetUid@CCaInnerEntry@@QAEXJ@Z @ 7 NONAME ; void CCaInnerEntry::SetUid(long)
	?SetLocalizedStringL@CCaLocalizationEntry@@QAEXABVTDesC16@@@Z @ 8 NONAME ; void CCaLocalizationEntry::SetLocalizedStringL(class TDesC16 const &)
	?GetText@CCaInnerEntry@@QBEABVRBuf16@@XZ @ 9 NONAME ; class RBuf16 const & CCaInnerEntry::GetText(void) const
	?InternalizeL@RCaEntriesArray@@QAEXAAVRReadStream@@@Z @ 10 NONAME ; void RCaEntriesArray::InternalizeL(class RReadStream &)
	?SetIdsL@CCaInnerNotifierFilter@@QAEXABV?$RArray@H@@@Z @ 11 NONAME ; void CCaInnerNotifierFilter::SetIdsL(class RArray<int> const &)
	?GetTextId@CCaLocalizationEntry@@QBEHXZ @ 12 NONAME ; int CCaLocalizationEntry::GetTextId(void) const
	?GetUid@CCaInnerEntry@@QBEJXZ @ 13 NONAME ; long CCaInnerEntry::GetUid(void) const
	?SetId@CCaInnerEntry@@QAEXI@Z @ 14 NONAME ; void CCaInnerEntry::SetId(unsigned int)
	?GetSort@CCaInnerQuery@@QBE?AW4TSortAttribute@1@XZ @ 15 NONAME ; enum CCaInnerQuery::TSortAttribute CCaInnerQuery::GetSort(void) const
	?SetCount@CCaInnerQuery@@QAEXI@Z @ 16 NONAME ; void CCaInnerQuery::SetCount(unsigned int)
	?ExternalizeL@CCaInnerNotifierFilter@@QBEXAAVRWriteStream@@@Z @ 17 NONAME ; void CCaInnerNotifierFilter::ExternalizeL(class RWriteStream &) const
	?FindAttribute@CCaInnerEntry@@QAEHABVTDesC16@@AAVTDes16@@@Z @ 18 NONAME ; int CCaInnerEntry::FindAttribute(class TDesC16 const &, class TDes16 &)
	?Find@RCaEntryAttrArray@@QAEHABVTDesC16@@AAVTDes16@@@Z @ 19 NONAME ; int RCaEntryAttrArray::Find(class TDesC16 const &, class TDes16 &)
	?SetRowId@CCaLocalizationEntry@@QAEXI@Z @ 20 NONAME ; void CCaLocalizationEntry::SetRowId(unsigned int)
	?GetUid@CCaInnerQuery@@QBEIXZ @ 21 NONAME ; unsigned int CCaInnerQuery::GetUid(void) const
	?SetFlags@CCaInnerEntry@@QAEXI@Z @ 22 NONAME ; void CCaInnerEntry::SetFlags(unsigned int)
	?SetAttributeNameL@CCaLocalizationEntry@@QAEXABVTDesC16@@@Z @ 23 NONAME ; void CCaLocalizationEntry::SetAttributeNameL(class TDesC16 const &)
	?GetCount@CCaInnerQuery@@QBEIXZ @ 24 NONAME ; unsigned int CCaInnerQuery::GetCount(void) const
	?GetParentId@CCaInnerNotifierFilter@@QBEHXZ @ 25 NONAME ; int CCaInnerNotifierFilter::GetParentId(void) const
	?GetStringId@CCaLocalizationEntry@@QBEABVRBuf16@@XZ @ 26 NONAME ; class RBuf16 const & CCaLocalizationEntry::GetStringId(void) const
	?GetFlags@CCaInnerEntry@@QBEIXZ @ 27 NONAME ; unsigned int CCaInnerEntry::GetFlags(void) const
	?NewL@CCaEntryAttribute@@SAPAV1@ABVTDesC16@@@Z @ 28 NONAME ; class CCaEntryAttribute * CCaEntryAttribute::NewL(class TDesC16 const &)
	?SetParentId@CCaInnerNotifierFilter@@QAEXH@Z @ 29 NONAME ; void CCaInnerNotifierFilter::SetParentId(int)
	?SetFlagsOn@CCaInnerQuery@@QAEXI@Z @ 30 NONAME ; void CCaInnerQuery::SetFlagsOn(unsigned int)
	?SetTypeNames@CCaInnerNotifierFilter@@QAEXPAVCDesC16ArrayFlat@@@Z @ 31 NONAME ; void CCaInnerNotifierFilter::SetTypeNames(class CDesC16ArrayFlat *)
	?NewLC@CCaLocalizationEntry@@SAPAV1@XZ @ 32 NONAME ; class CCaLocalizationEntry * CCaLocalizationEntry::NewLC(void)
	?NewL@CCaInnerNotifierFilter@@SAPAV1@W4TNotifierType@1@@Z @ 33 NONAME ; class CCaInnerNotifierFilter * CCaInnerNotifierFilter::NewL(enum CCaInnerNotifierFilter::TNotifierType)
	?GetTableName@CCaLocalizationEntry@@QBEABVRBuf16@@XZ @ 34 NONAME ; class RBuf16 const & CCaLocalizationEntry::GetTableName(void) const
	?GetFlagsOff@CCaInnerQuery@@QBEIXZ @ 35 NONAME ; unsigned int CCaInnerQuery::GetFlagsOff(void) const
	?InternalizeL@CCaInnerEntry@@QAEXAAVRReadStream@@@Z @ 36 NONAME ; void CCaInnerEntry::InternalizeL(class RReadStream &)
	?GetAttributeName@CCaLocalizationEntry@@QBEABVRBuf16@@XZ @ 37 NONAME ; class RBuf16 const & CCaLocalizationEntry::GetAttributeName(void) const
	?GetTUint@MenuUtils@@SAHABVTDesC16@@AAI@Z @ 38 NONAME ; int MenuUtils::GetTUint(class TDesC16 const &, unsigned int &)
	?AddAttributeL@CCaInnerQuery@@QAEXABVTDesC16@@0@Z @ 39 NONAME ; void CCaInnerQuery::AddAttributeL(class TDesC16 const &, class TDesC16 const &)
	?Exist@RCaEntryAttrArray@@QAEHABVTDesC16@@@Z @ 40 NONAME ; int RCaEntryAttrArray::Exist(class TDesC16 const &)
	?AddAttributeL@CCaInnerEntry@@QAEXABVTDesC16@@0@Z @ 41 NONAME ; void CCaInnerEntry::AddAttributeL(class TDesC16 const &, class TDesC16 const &)
	?GetParentId@CCaInnerQuery@@QBEHXZ @ 42 NONAME ; int CCaInnerQuery::GetParentId(void) const
	?SetDescriptionL@CCaInnerEntry@@QAEXABVTDesC16@@@Z @ 43 NONAME ; void CCaInnerEntry::SetDescriptionL(class TDesC16 const &)
	?SetEntryRole@CCaInnerNotifierFilter@@QAEXW4TEntryRole@@@Z @ 44 NONAME ; void CCaInnerNotifierFilter::SetEntryRole(enum TEntryRole)
	?GetFlagsOn@CCaInnerQuery@@QBEIXZ @ 45 NONAME ; unsigned int CCaInnerQuery::GetFlagsOn(void) const
	?GetIconId@CCaInnerEntry@@QBEHXZ @ 46 NONAME ; int CCaInnerEntry::GetIconId(void) const
	?SetIconDataL@CCaInnerEntry@@QAEXABVTDesC16@@00@Z @ 47 NONAME ; void CCaInnerEntry::SetIconDataL(class TDesC16 const &, class TDesC16 const &, class TDesC16 const &)
	?GetEntryRole@CCaInnerNotifierFilter@@QBE?AW4TEntryRole@@XZ @ 48 NONAME ; enum TEntryRole CCaInnerNotifierFilter::GetEntryRole(void) const
	?GetId@CCaInnerEntry@@QBEHXZ @ 49 NONAME ; int CCaInnerEntry::GetId(void) const
	?SetEntryTypeNames@CCaInnerQuery@@QAEXPAVCDesC16ArrayFlat@@@Z @ 50 NONAME ; void CCaInnerQuery::SetEntryTypeNames(class CDesC16ArrayFlat *)
	?GetNotifierType@CCaInnerNotifierFilter@@QBE?AW4TNotifierType@1@XZ @ 51 NONAME ; enum CCaInnerNotifierFilter::TNotifierType CCaInnerNotifierFilter::GetNotifierType(void) const
	?ExternalizeL@CCaInnerEntry@@QBEXAAVRWriteStream@@@Z @ 52 NONAME ; void CCaInnerEntry::ExternalizeL(class RWriteStream &) const
	?SetRole@CCaInnerQuery@@QAEXH@Z @ 53 NONAME ; void CCaInnerQuery::SetRole(int)
	?GetIcon@CCaInnerEntry@@QBEABUTIconAttributes@1@XZ @ 54 NONAME ; struct CCaInnerEntry::TIconAttributes const & CCaInnerEntry::GetIcon(void) const
	?NewL@CCaLocalizationEntry@@SAPAV1@XZ @ 55 NONAME ; class CCaLocalizationEntry * CCaLocalizationEntry::NewL(void)
	?InternalizeL@CCaInnerNotifierFilter@@QAEXAAVRReadStream@@@Z @ 56 NONAME ; void CCaInnerNotifierFilter::InternalizeL(class RReadStream &)
	?InternalizeL@RCaIdsArray@@QAEXAAVRReadStream@@@Z @ 57 NONAME ; void RCaIdsArray::InternalizeL(class RReadStream &)
	?MarshalDataLC@RCaIdsArray@@QBEPAVHBufC8@@XZ @ 58 NONAME ; class HBufC8 * RCaIdsArray::MarshalDataLC(void) const
	?GetEntryTypeNames@CCaInnerQuery@@QBEPBVCDesC16ArrayFlat@@XZ @ 59 NONAME ; class CDesC16ArrayFlat const * CCaInnerQuery::GetEntryTypeNames(void) const
	?SetValueL@CCaEntryAttribute@@QAEXABVTDesC16@@@Z @ 60 NONAME ; void CCaEntryAttribute::SetValueL(class TDesC16 const &)
	?ExternalizeL@CCaInnerQuery@@QBEXAAVRWriteStream@@@Z @ 61 NONAME ; void CCaInnerQuery::ExternalizeL(class RWriteStream &) const
	?GetLocalizedString@CCaLocalizationEntry@@QBEABVRBuf16@@XZ @ 62 NONAME ; class RBuf16 const & CCaLocalizationEntry::GetLocalizedString(void) const
	?InternalizeL@CCaInnerQuery@@QAEXAAVRReadStream@@@Z @ 63 NONAME ; void CCaInnerQuery::InternalizeL(class RReadStream &)
	?NewLC@CCaEntryAttribute@@SAPAV1@ABVTDesC16@@@Z @ 64 NONAME ; class CCaEntryAttribute * CCaEntryAttribute::NewLC(class TDesC16 const &)
	?GetTypeNames@CCaInnerNotifierFilter@@QBEPAVCDesC16ArrayFlat@@XZ @ 65 NONAME ; class CDesC16ArrayFlat * CCaInnerNotifierFilter::GetTypeNames(void) const
	?NewL@CCaInnerEntry@@SAPAV1@XZ @ 66 NONAME ; class CCaInnerEntry * CCaInnerEntry::NewL(void)
	?SetRole@CCaInnerEntry@@QAEXI@Z @ 67 NONAME ; void CCaInnerEntry::SetRole(unsigned int)
	?NewLC@CCaInnerEntry@@SAPAV1@XZ @ 68 NONAME ; class CCaInnerEntry * CCaInnerEntry::NewLC(void)
	?SetTableNameL@CCaLocalizationEntry@@QAEXABVTDesC16@@@Z @ 69 NONAME ; void CCaLocalizationEntry::SetTableNameL(class TDesC16 const &)
	?GetAttributes@CCaInnerEntry@@QBEABVRCaEntryAttrArray@@XZ @ 70 NONAME ; class RCaEntryAttrArray const & CCaInnerEntry::GetAttributes(void) const
	?GetRowId@CCaLocalizationEntry@@QBEHXZ @ 71 NONAME ; int CCaLocalizationEntry::GetRowId(void) const
	?SetIdsL@CCaInnerQuery@@QAEXABV?$RArray@H@@@Z @ 72 NONAME ; void CCaInnerQuery::SetIdsL(class RArray<int> const &)
	?SetFlagsOff@CCaInnerQuery@@QAEXI@Z @ 73 NONAME ; void CCaInnerQuery::SetFlagsOff(unsigned int)
	?RemoveAttributeL@CCaInnerEntry@@QAEXABVTDesC16@@@Z @ 74 NONAME ; void CCaInnerEntry::RemoveAttributeL(class TDesC16 const &)
	?GetRole@CCaInnerEntry@@QBEIXZ @ 75 NONAME ; unsigned int CCaInnerEntry::GetRole(void) const
	?GetIds@CCaInnerQuery@@QBEABV?$RArray@H@@XZ @ 76 NONAME ; class RArray<int> const & CCaInnerQuery::GetIds(void) const
	?ExternalizeL@RCaEntriesArray@@QBEXAAVRWriteStream@@@Z @ 77 NONAME ; void RCaEntriesArray::ExternalizeL(class RWriteStream &) const
	?NewL@CCaInnerQuery@@SAPAV1@XZ @ 78 NONAME ; class CCaInnerQuery * CCaInnerQuery::NewL(void)
	?SetUid@CCaInnerQuery@@QAEXI@Z @ 79 NONAME ; void CCaInnerQuery::SetUid(unsigned int)
	?GetDescription@CCaInnerEntry@@QBEABVRBuf16@@XZ @ 80 NONAME ; class RBuf16 const & CCaInnerEntry::GetDescription(void) const
	?GetRole@CCaInnerQuery@@QBEHXZ @ 81 NONAME ; int CCaInnerQuery::GetRole(void) const
	?GetEntryTypeName@CCaInnerEntry@@QBEABVRBuf16@@XZ @ 82 NONAME ; class RBuf16 const & CCaInnerEntry::GetEntryTypeName(void) const
	?NewLC@CCaInnerQuery@@SAPAV1@XZ @ 83 NONAME ; class CCaInnerQuery * CCaInnerQuery::NewLC(void)
	?SetTextL@CCaInnerEntry@@QAEXABVTDesC16@@@Z @ 84 NONAME ; void CCaInnerEntry::SetTextL(class TDesC16 const &)
	?SetParentId@CCaInnerQuery@@QAEXH@Z @ 85 NONAME ; void CCaInnerQuery::SetParentId(int)
	?GetIds@CCaInnerNotifierFilter@@QBE?AV?$RArray@H@@XZ @ 86 NONAME ; class RArray<int> CCaInnerNotifierFilter::GetIds(void) const
	?SetStringIdL@CCaLocalizationEntry@@QAEXABVTDesC16@@@Z @ 87 NONAME ; void CCaLocalizationEntry::SetStringIdL(class TDesC16 const &)
	?SetTextId@CCaLocalizationEntry@@QAEXI@Z @ 88 NONAME ; void CCaLocalizationEntry::SetTextId(unsigned int)
	?RemoveAttribute@RCaEntryAttrArray@@QAEXABVTDesC16@@@Z @ 89 NONAME ; void RCaEntryAttrArray::RemoveAttribute(class TDesC16 const &)

