EXPORTS
	?hspsGetListHeaders@ChspsClient@@UAE?AW4ThspsServiceCompletedMessage@@ABVTDesC8@@AAV?$CArrayPtrSeg@VHBufC8@@@@@Z @ 1 NONAME ; enum ThspsServiceCompletedMessage ChspsClient::hspsGetListHeaders(class TDesC8 const &, class CArrayPtrSeg<class HBufC8> &)
	?hspsInstallTheme@ChspsClient@@UAE?AW4ThspsServiceCompletedMessage@@ABVTDesC16@@AAVTDes8@@@Z @ 2 NONAME ; enum ThspsServiceCompletedMessage ChspsClient::hspsInstallTheme(class TDesC16 const &, class TDes8 &)
	?hspsCancelGetListHeaders@ChspsClient@@UAE?AW4ThspsServiceCompletedMessage@@XZ @ 3 NONAME ; enum ThspsServiceCompletedMessage ChspsClient::hspsCancelGetListHeaders(void)
	?hspsSetConfState@ChspsClient@@UAE?AW4ThspsServiceCompletedMessage@@HHW4ThspsConfigurationState@@W4ThspsConfStateChangeFilter@@@Z @ 4 NONAME ; enum ThspsServiceCompletedMessage ChspsClient::hspsSetConfState(int, int, enum ThspsConfigurationState, enum ThspsConfStateChangeFilter)
	?hspsRemovePlugin@ChspsClient@@UAE?AW4ThspsServiceCompletedMessage@@HH@Z @ 5 NONAME ; enum ThspsServiceCompletedMessage ChspsClient::hspsRemovePlugin(int, int)
	?hspsInstallNextPhaseL@ChspsClient@@UAE?AW4ThspsServiceCompletedMessage@@AAVTDes8@@@Z @ 6 NONAME ; enum ThspsServiceCompletedMessage ChspsClient::hspsInstallNextPhaseL(class TDes8 &)
	?GethspsResult@ChspsClient@@QAEXAAVChspsResult@@@Z @ 7 NONAME ; void ChspsClient::GethspsResult(class ChspsResult &)
	?hspsRestoreActiveAppConf@ChspsClient@@UAE?AW4ThspsServiceCompletedMessage@@H@Z @ 8 NONAME ; enum ThspsServiceCompletedMessage ChspsClient::hspsRestoreActiveAppConf(int)
	?NewLC@ChspsClient@@SAPAV1@AAVMhspsThemeManagementServiceObserver@@@Z @ 9 NONAME ; class ChspsClient * ChspsClient::NewLC(class MhspsThemeManagementServiceObserver &)
	?hspsInstallTheme@ChspsClient@@UAE?AW4ThspsServiceCompletedMessage@@ABVTDesC16@@AAVChspsODT@@@Z @ 10 NONAME ; enum ThspsServiceCompletedMessage ChspsClient::hspsInstallTheme(class TDesC16 const &, class ChspsODT &)
	?hspsReinstallConf@ChspsClient@@QAE?AW4ThspsServiceCompletedMessage@@HH@Z @ 11 NONAME ; enum ThspsServiceCompletedMessage ChspsClient::hspsReinstallConf(int, int)
	?hspsRestoreDefault@ChspsClient@@UAE?AW4ThspsServiceCompletedMessage@@ABVChspsODT@@AAV3@@Z @ 12 NONAME ; enum ThspsServiceCompletedMessage ChspsClient::hspsRestoreDefault(class ChspsODT const &, class ChspsODT &)
	?hspsReplacePlugin@ChspsClient@@UAE?AW4ThspsServiceCompletedMessage@@HHH@Z @ 13 NONAME ; enum ThspsServiceCompletedMessage ChspsClient::hspsReplacePlugin(int, int, int)
	?hspsSetActiveTheme@ChspsClient@@UAE?AW4ThspsServiceCompletedMessage@@ABVChspsODT@@AAV3@@Z @ 14 NONAME ; enum ThspsServiceCompletedMessage ChspsClient::hspsSetActiveTheme(class ChspsODT const &, class ChspsODT &)
	?hspsPluginUpdateL@ChspsClient@@UAE?AW4ThspsServiceCompletedMessage@@ABVChspsODT@@@Z @ 15 NONAME ; enum ThspsServiceCompletedMessage ChspsClient::hspsPluginUpdateL(class ChspsODT const &)
	?hspsInstallNextPhaseL@ChspsClient@@UAE?AW4ThspsServiceCompletedMessage@@AAVChspsODT@@@Z @ 16 NONAME ; enum ThspsServiceCompletedMessage ChspsClient::hspsInstallNextPhaseL(class ChspsODT &)
	?hspsAddPlugin@ChspsClient@@UAE?AW4ThspsServiceCompletedMessage@@HHHHAAH@Z @ 17 NONAME ; enum ThspsServiceCompletedMessage ChspsClient::hspsAddPlugin(int, int, int, int, int &)
	?hspsSetPluginSettings@ChspsClient@@UAE?AW4ThspsServiceCompletedMessage@@ABVChspsODT@@HAAVChspsDomDocument@@H@Z @ 18 NONAME ; enum ThspsServiceCompletedMessage ChspsClient::hspsSetPluginSettings(class ChspsODT const &, int, class ChspsDomDocument &, int)
	?hspsRestoreConfigurations@ChspsClient@@QAE?AW4ThspsServiceCompletedMessage@@HW4ThspsRestore@@@Z @ 19 NONAME ; enum ThspsServiceCompletedMessage ChspsClient::hspsRestoreConfigurations(int, enum ThspsRestore)
	?NewL@ChspsClient@@SAPAV1@AAVMhspsThemeManagementServiceObserver@@@Z @ 20 NONAME ; class ChspsClient * ChspsClient::NewL(class MhspsThemeManagementServiceObserver &)
	?SetLogBus@ChspsClient@@QAEXPAX@Z @ 21 NONAME ; void ChspsClient::SetLogBus(void *)
	?hspsSetActivePlugin@ChspsClient@@UAE?AW4ThspsServiceCompletedMessage@@HH@Z @ 22 NONAME ; enum ThspsServiceCompletedMessage ChspsClient::hspsSetActivePlugin(int, int)
	?hspsCancelInstallTheme@ChspsClient@@UAE?AW4ThspsServiceCompletedMessage@@XZ @ 23 NONAME ; enum ThspsServiceCompletedMessage ChspsClient::hspsCancelInstallTheme(void)
	?hspsGetNextHeader@ChspsClient@@UAE?AW4ThspsServiceCompletedMessage@@XZ @ 24 NONAME ; enum ThspsServiceCompletedMessage ChspsClient::hspsGetNextHeader(void)
	?hspsGetListHeaders@ChspsClient@@UAE?AW4ThspsServiceCompletedMessage@@ABVChspsODT@@HAAV?$CArrayPtrFlat@VChspsODT@@@@@Z @ 25 NONAME ; enum ThspsServiceCompletedMessage ChspsClient::hspsGetListHeaders(class ChspsODT const &, int, class CArrayPtrFlat<class ChspsODT> &)
	?hspsSetActiveTheme@ChspsClient@@UAE?AW4ThspsServiceCompletedMessage@@ABVTDesC8@@AAVTDes8@@@Z @ 26 NONAME ; enum ThspsServiceCompletedMessage ChspsClient::hspsSetActiveTheme(class TDesC8 const &, class TDes8 &)
	?hspsGetPluginOdtL@ChspsClient@@QAE?AW4ThspsServiceCompletedMessage@@HHPAVChspsODT@@@Z @ 27 NONAME ; enum ThspsServiceCompletedMessage ChspsClient::hspsGetPluginOdtL(int, int, class ChspsODT *)
	?hspsMovePluginsL@ChspsClient@@UAE?AW4ThspsServiceCompletedMessage@@HHABV?$CArrayFixFlat@H@@@Z @ 28 NONAME ; enum ThspsServiceCompletedMessage ChspsClient::hspsMovePluginsL(int, int, class CArrayFixFlat<int> const &)
	?hspsGetHeaders@ChspsClient@@QAEHABVChspsODT@@HAAV?$CArrayPtrFlat@VChspsODT@@@@@Z @ 29 NONAME ; int ChspsClient::hspsGetHeaders(class ChspsODT const &, int, class CArrayPtrFlat<class ChspsODT> &)
	?hspsRemoveThemeL@ChspsClient@@UAE?AW4ThspsServiceCompletedMessage@@ABVChspsODT@@@Z @ 30 NONAME ; enum ThspsServiceCompletedMessage ChspsClient::hspsRemoveThemeL(class ChspsODT const &)

