EXPORTS
	?GetListHeaders@RhspsClientSession@@IAEHAAVTDes8@@ABVTDesC8@@0@Z @ 1 NONAME ; int RhspsClientSession::GetListHeaders(class TDes8 &, class TDesC8 const &, class TDes8 &)
	?CancelRequest@RhspsClientSession@@IAEXHAAVTDes8@@H@Z @ 2 NONAME ; void RhspsClientSession::CancelRequest(int, class TDes8 &, int)
	?SetConfState@RhspsClientSession@@IAEHAAVTDes8@@ABUThspsParamSetConfState@@@Z @ 3 NONAME ; int RhspsClientSession::SetConfState(class TDes8 &, struct ThspsParamSetConfState const &)
	?CopyResourceFiles@RhspsClientSession@@IAEHAAVTDes8@@AAVTDesC16@@1@Z @ 4 NONAME ; int RhspsClientSession::CopyResourceFiles(class TDes8 &, class TDesC16 &, class TDesC16 &)
	?Connect@RhspsClientSession@@IAEHXZ @ 5 NONAME ; int RhspsClientSession::Connect(void)
	?GetODT@RhspsClientSession@@IAEHAAVTDes8@@ABUThspsConfiguration@@ABVTDesC8@@AAVTDes16@@@Z @ 6 NONAME ; int RhspsClientSession::GetODT(class TDes8 &, struct ThspsConfiguration const &, class TDesC8 const &, class TDes16 &)
	?MovePlugins@RhspsClientSession@@IAEHAAVTDes8@@ABUThpsParamMovePlugins@@@Z @ 7 NONAME ; int RhspsClientSession::MovePlugins(class TDes8 &, struct ThpsParamMovePlugins const &)
	?SetActiveTheme@RhspsClientSession@@IAEHAAVTDes8@@ABVTDesC8@@0@Z @ 8 NONAME ; int RhspsClientSession::SetActiveTheme(class TDes8 &, class TDesC8 const &, class TDes8 &)
	?SetActivePlugin@RhspsClientSession@@IAEHAAVTDes8@@ABUThpsParamSetActivePlugin@@@Z @ 9 NONAME ; int RhspsClientSession::SetActivePlugin(class TDes8 &, struct ThpsParamSetActivePlugin const &)
	?ReplacePlugin@RhspsClientSession@@IAEHAAVTDes8@@ABUThspsParamReplacePlugin@@@Z @ 10 NONAME ; int RhspsClientSession::ReplacePlugin(class TDes8 &, struct ThspsParamReplacePlugin const &)
	?InstallNextPhase@RhspsClientSession@@IAEXAAVTDes8@@0AAVTRequestStatus@@@Z @ 11 NONAME ; void RhspsClientSession::InstallNextPhase(class TDes8 &, class TDes8 &, class TRequestStatus &)
	?SetPluginSettings@RhspsClientSession@@IAEHAAVTDes8@@0UThspsParamSetPluginSettings@@0@Z @ 12 NONAME ; int RhspsClientSession::SetPluginSettings(class TDes8 &, class TDes8 &, struct ThspsParamSetPluginSettings, class TDes8 &)
	?RemovePlugin@RhspsClientSession@@IAEHAAVTDes8@@ABUThpsParamRemovePlugin@@@Z @ 13 NONAME ; int RhspsClientSession::RemovePlugin(class TDes8 &, struct ThpsParamRemovePlugin const &)
	?GetNextHeader@RhspsClientSession@@IAEXAAVTDes8@@0AAVTRequestStatus@@@Z @ 14 NONAME ; void RhspsClientSession::GetNextHeader(class TDes8 &, class TDes8 &, class TRequestStatus &)
	?RemoveTheme@RhspsClientSession@@IAEHAAVTDes8@@ABVTDesC8@@@Z @ 15 NONAME ; int RhspsClientSession::RemoveTheme(class TDes8 &, class TDesC8 const &)
	?AddPlugin@RhspsClientSession@@IAEHAAVTDes8@@ABUThpsParamAddPlugin@@AAH@Z @ 16 NONAME ; int RhspsClientSession::AddPlugin(class TDes8 &, struct ThpsParamAddPlugin const &, int &)
	?Close@RhspsClientSession@@IAEXXZ @ 17 NONAME ; void RhspsClientSession::Close(void)
	?GetPluginOdt@RhspsClientSession@@IAEHAAVTDes8@@ABUThspsParamGetPluginOdt@@AAVTDes16@@@Z @ 18 NONAME ; int RhspsClientSession::GetPluginOdt(class TDes8 &, struct ThspsParamGetPluginOdt const &, class TDes16 &)
	?RestoreDefault@RhspsClientSession@@IAEHAAVTDes8@@ABVTDesC8@@0@Z @ 19 NONAME ; int RhspsClientSession::RestoreDefault(class TDes8 &, class TDesC8 const &, class TDes8 &)
	?GetNextHeader@RhspsClientSession@@IAEHAAVTDes8@@0@Z @ 20 NONAME ; int RhspsClientSession::GetNextHeader(class TDes8 &, class TDes8 &)
	?RestoreActiveAppConf@RhspsClientSession@@IAEHAAVTDes8@@ABUThspsParamRestoreActiveAppConf@@@Z @ 21 NONAME ; int RhspsClientSession::RestoreActiveAppConf(class TDes8 &, struct ThspsParamRestoreActiveAppConf const &)
	?InstallTheme@RhspsClientSession@@IAEHAAVTDes8@@ABVTDesC16@@0@Z @ 22 NONAME ; int RhspsClientSession::InstallTheme(class TDes8 &, class TDesC16 const &, class TDes8 &)
	?AccessResourceFile@RhspsClientSession@@IAEHAAVTDes8@@ABUThspsConfiguration@@ABVTDesC16@@AAH@Z @ 23 NONAME ; int RhspsClientSession::AccessResourceFile(class TDes8 &, struct ThspsConfiguration const &, class TDesC16 const &, int &)
	?GetODTUpdate@RhspsClientSession@@IAEXAAVTDes8@@00AAVTRequestStatus@@@Z @ 24 NONAME ; void RhspsClientSession::GetODTUpdate(class TDes8 &, class TDes8 &, class TDes8 &, class TRequestStatus &)
	?ReinstallConf@RhspsClientSession@@IAEHAAVTDes8@@ABUThspsParamReinstallConf@@@Z @ 25 NONAME ; int RhspsClientSession::ReinstallConf(class TDes8 &, struct ThspsParamReinstallConf const &)
	?RestoreConfigurations@RhspsClientSession@@IAEHAAVTDes8@@ABUThspsParamRestoreConfigurations@@@Z @ 26 NONAME ; int RhspsClientSession::RestoreConfigurations(class TDes8 &, struct ThspsParamRestoreConfigurations const &)

