EXPORTS
	_ZN18RhspsClientSession11MovePluginsER5TDes8RK20ThpsParamMovePlugins @ 1 NONAME
	_ZN18RhspsClientSession11RemoveThemeER5TDes8RK6TDesC8 @ 2 NONAME
	_ZN18RhspsClientSession12GetODTUpdateER5TDes8S1_S1_R14TRequestStatus @ 3 NONAME
	_ZN18RhspsClientSession12GetPluginOdtER5TDes8RK22ThspsParamGetPluginOdtR6TDes16 @ 4 NONAME
	_ZN18RhspsClientSession12InstallThemeER5TDes8RK7TDesC16S1_ @ 5 NONAME
	_ZN18RhspsClientSession12RemovePluginER5TDes8RK21ThpsParamRemovePlugin @ 6 NONAME
	_ZN18RhspsClientSession12SetConfStateER5TDes8RK22ThspsParamSetConfState @ 7 NONAME
	_ZN18RhspsClientSession13CancelRequestEiR5TDes8i @ 8 NONAME
	_ZN18RhspsClientSession13GetNextHeaderER5TDes8S1_ @ 9 NONAME
	_ZN18RhspsClientSession13GetNextHeaderER5TDes8S1_R14TRequestStatus @ 10 NONAME
	_ZN18RhspsClientSession13ReinstallConfER5TDes8RK23ThspsParamReinstallConf @ 11 NONAME
	_ZN18RhspsClientSession13ReplacePluginER5TDes8RK23ThspsParamReplacePlugin @ 12 NONAME
	_ZN18RhspsClientSession14GetListHeadersER5TDes8RK6TDesC8S1_ @ 13 NONAME
	_ZN18RhspsClientSession14RestoreDefaultER5TDes8RK6TDesC8S1_ @ 14 NONAME
	_ZN18RhspsClientSession14SetActiveThemeER5TDes8RK6TDesC8S1_ @ 15 NONAME
	_ZN18RhspsClientSession15SetActivePluginER5TDes8RK24ThpsParamSetActivePlugin @ 16 NONAME
	_ZN18RhspsClientSession16InstallNextPhaseER5TDes8S1_R14TRequestStatus @ 17 NONAME
	_ZN18RhspsClientSession17CopyResourceFilesER5TDes8R7TDesC16S3_ @ 18 NONAME
	_ZN18RhspsClientSession17SetPluginSettingsER5TDes8S1_27ThspsParamSetPluginSettingsS1_ @ 19 NONAME
	_ZN18RhspsClientSession18AccessResourceFileER5TDes8RK18ThspsConfigurationRK7TDesC16Ri @ 20 NONAME
	_ZN18RhspsClientSession20RestoreActiveAppConfER5TDes8RK30ThspsParamRestoreActiveAppConf @ 21 NONAME
	_ZN18RhspsClientSession5CloseEv @ 22 NONAME
	_ZN18RhspsClientSession6GetODTER5TDes8RK18ThspsConfigurationRK6TDesC8R6TDes16 @ 23 NONAME
	_ZN18RhspsClientSession7ConnectEv @ 24 NONAME
	_ZN18RhspsClientSession9AddPluginER5TDes8RK18ThpsParamAddPluginRi @ 25 NONAME
	_ZN18RhspsClientSession21RestoreConfigurationsER5TDes8RK31ThspsParamRestoreConfigurations @ 26 NONAME

