EXPORTS
	?RestoreConfigurationsL@CHspsPersonalisationService@@QAEXHH@Z @ 1 NONAME ; void CHspsPersonalisationService::RestoreConfigurationsL(int, int)
	?GetODTL@CHspsConfigurationService@@QAEXH@Z @ 2 NONAME ; void CHspsConfigurationService::GetODTL(int)
	?GetAppConfListL@CHspsPersonalisationService@@QAEXHKAAV?$CArrayPtrFlat@VChspsODT@@@@@Z @ 3 NONAME ; void CHspsPersonalisationService::GetAppConfListL(int, unsigned long, class CArrayPtrFlat<class ChspsODT> &)
	?SetConfStateL@CHspsPersonalisationService@@QAEXHAAVTDesC8@@00@Z @ 4 NONAME ; void CHspsPersonalisationService::SetConfStateL(int, class TDesC8 &, class TDesC8 &, class TDesC8 &)
	?InvalidateODT@CHspsConfigurationService@@QAEXXZ @ 5 NONAME ; void CHspsConfigurationService::InvalidateODT(void)
	?RemovePluginL@CHspsPersonalisationService@@QAEXHAAVTDesC8@@@Z @ 6 NONAME ; void CHspsPersonalisationService::RemovePluginL(int, class TDesC8 &)
	?SetActiveAppConfL@CHspsPersonalisationService@@QAEXHAAVTDesC8@@@Z @ 7 NONAME ; void CHspsPersonalisationService::SetActiveAppConfL(int, class TDesC8 &)
	?GetPluginListL@CHspsPersonalisationService@@QAEXAAVTDesC8@@0KHAAV?$CArrayPtrFlat@VChspsODT@@@@@Z @ 8 NONAME ; void CHspsPersonalisationService::GetPluginListL(class TDesC8 &, class TDesC8 &, unsigned long, int, class CArrayPtrFlat<class ChspsODT> &)
	?RestoreActiveAppConfL@CHspsPersonalisationService@@QAEXHAAVTDesC8@@@Z @ 9 NONAME ; void CHspsPersonalisationService::RestoreActiveAppConfL(int, class TDesC8 &)
	?AddPluginL@CHspsPersonalisationService@@QAEXHAAVTDesC8@@00AAH@Z @ 10 NONAME ; void CHspsPersonalisationService::AddPluginL(int, class TDesC8 &, class TDesC8 &, class TDesC8 &, int &)
	?SetLogBus@CHspsConfigurationService@@QAEXPAVChspsLogBus@@@Z @ 11 NONAME ; void CHspsConfigurationService::SetLogBus(class ChspsLogBus *)
	?GetAppUidL@CHspsConfigurationService@@QAEXAAH@Z @ 12 NONAME ; void CHspsConfigurationService::GetAppUidL(int &)
	?MovePluginsL@CHspsPersonalisationService@@QAEXHAAVTDesC8@@AAV?$CArrayFixFlat@H@@@Z @ 13 NONAME ; void CHspsPersonalisationService::MovePluginsL(int, class TDesC8 &, class CArrayFixFlat<int> &)
	?RegisterObserverL@CHspsConfigurationService@@QAEHPAVCHspsReqNotifCallback@@@Z @ 14 NONAME ; int CHspsConfigurationService::RegisterObserverL(class CHspsReqNotifCallback *)
	?GetDOML@CHspsConfigurationService@@QAEAAVChspsDomDocument@@XZ @ 15 NONAME ; class ChspsDomDocument & CHspsConfigurationService::GetDOML(void)
	?NewL@CHspsConfigurationService@@SAPAV1@XZ @ 16 NONAME ; class CHspsConfigurationService * CHspsConfigurationService::NewL(void)
	?NewL@CHspsPersonalisationService@@SAPAV1@XZ @ 17 NONAME ; class CHspsPersonalisationService * CHspsPersonalisationService::NewL(void)
	?SetPluginSettingsL@CHspsPersonalisationService@@QAEXHAAVTDesC8@@AAVChspsDomDocument@@H@Z @ 18 NONAME ; void CHspsPersonalisationService::SetPluginSettingsL(int, class TDesC8 &, class ChspsDomDocument &, int)
	?GetFamilyL@CHspsConfigurationService@@QAEXAAK@Z @ 19 NONAME ; void CHspsConfigurationService::GetFamilyL(unsigned long &)
	?ReplacePluginL@CHspsPersonalisationService@@QAEXHABVTDesC8@@0@Z @ 20 NONAME ; void CHspsPersonalisationService::ReplacePluginL(int, class TDesC8 const &, class TDesC8 const &)
	?GetPluginOdtL@CHspsPersonalisationService@@QAEXHAAVTDesC8@@PAVChspsODT@@@Z @ 21 NONAME ; void CHspsPersonalisationService::GetPluginOdtL(int, class TDesC8 &, class ChspsODT *)
	?SetActivePluginL@CHspsPersonalisationService@@QAEXHAAVTDesC8@@@Z @ 22 NONAME ; void CHspsPersonalisationService::SetActivePluginL(int, class TDesC8 &)
	?UnRegisterObserverL@CHspsConfigurationService@@QAEXXZ @ 23 NONAME ; void CHspsConfigurationService::UnRegisterObserverL(void)

