EXPORTS
	?launchActivity@HsActivityDbClient@@UAEHABV?$QHash@VQString@@VQVariant@@@@@Z @ 1 NONAME ; int HsActivityDbClient::launchActivity(class QHash<class QString, class QVariant> const &)
	?connect@HsActivityDbClient@@QAEHXZ @ 2 NONAME ; int HsActivityDbClient::connect(void)
	?asyncRequestCompleated@HsActivityDbClient@@UAEXHHABVQString@@@Z @ 3 NONAME ; void HsActivityDbClient::asyncRequestCompleated(int, int, class QString const &)
	?trUtf8@HsActivityDbClient@@SA?AVQString@@PBD0@Z @ 4 NONAME ; class QString HsActivityDbClient::trUtf8(char const *, char const *)
	?applicationActivities@HsActivityDbClient@@UAEHAAV?$QList@V?$QHash@VQString@@VQVariant@@@@@@ABV?$QHash@VQString@@VQVariant@@@@@Z @ 5 NONAME ; int HsActivityDbClient::applicationActivities(class QList<class QHash<class QString, class QVariant> > &, class QHash<class QString, class QVariant> const &)
	?getThumbnail@HsActivityDbClient@@QAEHVQSize@@VQString@@1PAX@Z @ 6 NONAME ; int HsActivityDbClient::getThumbnail(class QSize, class QString, class QString, void *)
	?dataChanged@HsActivityDbClient@@IAEXXZ @ 7 NONAME ; void HsActivityDbClient::dataChanged(void)
	?qt_metacast@HsActivityDbClient@@UAEPAXPBD@Z @ 8 NONAME ; void * HsActivityDbClient::qt_metacast(char const *)
	?qt_metacall@HsActivityDbClient@@UAEHW4Call@QMetaObject@@HPAPAX@Z @ 9 NONAME ; int HsActivityDbClient::qt_metacall(enum QMetaObject::Call, int, void * *)
	?waitActivity@HsActivityDbClient@@UAEHABV?$QHash@VQString@@VQVariant@@@@@Z @ 10 NONAME ; int HsActivityDbClient::waitActivity(class QHash<class QString, class QVariant> const &)
	?activities@HsActivityDbClient@@UAEHAAV?$QList@V?$QHash@VQString@@VQVariant@@@@@@@Z @ 11 NONAME ; int HsActivityDbClient::activities(class QList<class QHash<class QString, class QVariant> > &)
	?notifyDataChange@HsActivityDbClient@@QAEHXZ @ 12 NONAME ; int HsActivityDbClient::notifyDataChange(void)
	?trUtf8@HsActivityDbClient@@SA?AVQString@@PBD0H@Z @ 13 NONAME ; class QString HsActivityDbClient::trUtf8(char const *, char const *, int)
	?asyncRequestCompleated@HsActivityDbClient@@UAEXHH@Z @ 14 NONAME ; void HsActivityDbClient::asyncRequestCompleated(int, int)
	??0HsActivityDbClient@@QAE@PAVQObject@@@Z @ 15 NONAME ; HsActivityDbClient::HsActivityDbClient(class QObject *)
	?tr@HsActivityDbClient@@SA?AVQString@@PBD0@Z @ 16 NONAME ; class QString HsActivityDbClient::tr(char const *, char const *)
	?getStaticMetaObject@HsActivityDbClient@@SAABUQMetaObject@@XZ @ 17 NONAME ; struct QMetaObject const & HsActivityDbClient::getStaticMetaObject(void)
	??_EHsActivityDbClient@@UAE@I@Z @ 18 NONAME ; HsActivityDbClient::~HsActivityDbClient(unsigned int)
	?removeApplicationActivities@HsActivityDbClient@@UAEHABV?$QHash@VQString@@VQVariant@@@@@Z @ 19 NONAME ; int HsActivityDbClient::removeApplicationActivities(class QHash<class QString, class QVariant> const &)
	?metaObject@HsActivityDbClient@@UBEPBUQMetaObject@@XZ @ 20 NONAME ; struct QMetaObject const * HsActivityDbClient::metaObject(void) const
	?tr@HsActivityDbClient@@SA?AVQString@@PBD0H@Z @ 21 NONAME ; class QString HsActivityDbClient::tr(char const *, char const *, int)
	?addActivity@HsActivityDbClient@@UAEHABV?$QHash@VQString@@VQVariant@@@@0@Z @ 22 NONAME ; int HsActivityDbClient::addActivity(class QHash<class QString, class QVariant> const &, class QHash<class QString, class QVariant> const &)
	?asyncRequestCompleated@HsActivityDbClient@@UAEXHHABVQPixmap@@PAX@Z @ 23 NONAME ; void HsActivityDbClient::asyncRequestCompleated(int, int, class QPixmap const &, void *)
	?staticMetaObject@HsActivityDbClient@@2UQMetaObject@@B @ 24 NONAME ; struct QMetaObject const HsActivityDbClient::staticMetaObject
	?updateActivity@HsActivityDbClient@@UAEHABV?$QHash@VQString@@VQVariant@@@@0@Z @ 25 NONAME ; int HsActivityDbClient::updateActivity(class QHash<class QString, class QVariant> const &, class QHash<class QString, class QVariant> const &)
	??1HsActivityDbClient@@UAE@XZ @ 26 NONAME ; HsActivityDbClient::~HsActivityDbClient(void)
	?thumbnailRequested@HsActivityDbClient@@IAEXVQPixmap@@PAX@Z @ 27 NONAME ; void HsActivityDbClient::thumbnailRequested(class QPixmap, void *)
	?activityRequested@HsActivityDbClient@@IAEXABVQString@@@Z @ 28 NONAME ; void HsActivityDbClient::activityRequested(class QString const &)
	?removeActivity@HsActivityDbClient@@UAEHABV?$QHash@VQString@@VQVariant@@@@@Z @ 29 NONAME ; int HsActivityDbClient::removeActivity(class QHash<class QString, class QVariant> const &)
	?activityData@HsActivityDbClient@@UAEHAAVQVariant@@ABV?$QHash@VQString@@VQVariant@@@@@Z @ 30 NONAME ; int HsActivityDbClient::activityData(class QVariant &, class QHash<class QString, class QVariant> const &)

